
MDPGrp8.elf:     file format elf32-littlearm

Sections:
Idx Name          Size      VMA       LMA       File off  Algn
  0 .isr_vector   000001e4  08000000  08000000  00010000  2**0
                  CONTENTS, ALLOC, LOAD, READONLY, DATA
  1 .text         00005794  080001f0  080001f0  000101f0  2**4
                  CONTENTS, ALLOC, LOAD, READONLY, CODE
  2 .rodata       00000cd4  08005984  08005984  00015984  2**2
                  CONTENTS, ALLOC, LOAD, READONLY, DATA
  3 .ARM.extab    00000000  08006658  08006658  00020074  2**0
                  CONTENTS
  4 .ARM          00000000  08006658  08006658  00020074  2**0
                  CONTENTS
  5 .preinit_array 00000000  08006658  08006658  00020074  2**0
                  CONTENTS, ALLOC, LOAD, DATA
  6 .init_array   00000004  08006658  08006658  00016658  2**2
                  CONTENTS, ALLOC, LOAD, DATA
  7 .fini_array   00000004  0800665c  0800665c  0001665c  2**2
                  CONTENTS, ALLOC, LOAD, DATA
  8 .data         00000074  20000000  08006660  00020000  2**2
                  CONTENTS, ALLOC, LOAD, DATA
  9 .bss          00001fcc  20000074  080066d4  00020074  2**2
                  ALLOC
 10 ._user_heap_stack 00000600  20002040  080066d4  00022040  2**0
                  ALLOC
 11 .ARM.attributes 00000029  00000000  00000000  00020074  2**0
                  CONTENTS, READONLY
 12 .comment      00000053  00000000  00000000  0002009d  2**0
                  CONTENTS, READONLY
 13 .debug_frame  00000520  00000000  00000000  000200f0  2**2
                  CONTENTS, READONLY, DEBUGGING, OCTETS

Disassembly of section .text:

080001f0 <__do_global_dtors_aux>:
 80001f0:	b510      	push	{r4, lr}
 80001f2:	4c05      	ldr	r4, [pc, #20]	; (8000208 <__do_global_dtors_aux+0x18>)
 80001f4:	7823      	ldrb	r3, [r4, #0]
 80001f6:	b933      	cbnz	r3, 8000206 <__do_global_dtors_aux+0x16>
 80001f8:	4b04      	ldr	r3, [pc, #16]	; (800020c <__do_global_dtors_aux+0x1c>)
 80001fa:	b113      	cbz	r3, 8000202 <__do_global_dtors_aux+0x12>
 80001fc:	4804      	ldr	r0, [pc, #16]	; (8000210 <__do_global_dtors_aux+0x20>)
 80001fe:	f3af 8000 	nop.w
 8000202:	2301      	movs	r3, #1
 8000204:	7023      	strb	r3, [r4, #0]
 8000206:	bd10      	pop	{r4, pc}
 8000208:	20000074 	.word	0x20000074
 800020c:	00000000 	.word	0x00000000
 8000210:	0800596c 	.word	0x0800596c

08000214 <frame_dummy>:
 8000214:	b508      	push	{r3, lr}
 8000216:	4b03      	ldr	r3, [pc, #12]	; (8000224 <frame_dummy+0x10>)
 8000218:	b11b      	cbz	r3, 8000222 <frame_dummy+0xe>
 800021a:	4903      	ldr	r1, [pc, #12]	; (8000228 <frame_dummy+0x14>)
 800021c:	4803      	ldr	r0, [pc, #12]	; (800022c <frame_dummy+0x18>)
 800021e:	f3af 8000 	nop.w
 8000222:	bd08      	pop	{r3, pc}
 8000224:	00000000 	.word	0x00000000
 8000228:	20000078 	.word	0x20000078
 800022c:	0800596c 	.word	0x0800596c

08000230 <StartDefaultTask>:
 8000230:	b5f0      	push	{r4, r5, r6, r7, lr}
 8000232:	b087      	sub	sp, #28
 8000234:	aa01      	add	r2, sp, #4
 8000236:	4616      	mov	r6, r2
 8000238:	4b1f      	ldr	r3, [pc, #124]	; (80002b8 <StartDefaultTask+0x88>)
 800023a:	f103 0508 	add.w	r5, r3, #8
 800023e:	4614      	mov	r4, r2
 8000240:	6818      	ldr	r0, [r3, #0]
 8000242:	6859      	ldr	r1, [r3, #4]
 8000244:	3308      	adds	r3, #8
 8000246:	c403      	stmia	r4!, {r0, r1}
 8000248:	42ab      	cmp	r3, r5
 800024a:	4622      	mov	r2, r4
 800024c:	d1f7      	bne.n	800023e <StartDefaultTask+0xe>
 800024e:	6818      	ldr	r0, [r3, #0]
 8000250:	889b      	ldrh	r3, [r3, #4]
 8000252:	6020      	str	r0, [r4, #0]
 8000254:	80a3      	strh	r3, [r4, #4]
 8000256:	2300      	movs	r3, #0
 8000258:	210c      	movs	r1, #12
 800025a:	4818      	ldr	r0, [pc, #96]	; (80002bc <StartDefaultTask+0x8c>)
 800025c:	f8cd 3012 	str.w	r3, [sp, #18]
 8000260:	f8ad 3016 	strh.w	r3, [sp, #22]
 8000264:	f002 feb8 	bl	8002fd8 <HAL_TIM_PWM_Start>
 8000268:	4a15      	ldr	r2, [pc, #84]	; (80002c0 <StartDefaultTask+0x90>)
 800026a:	4916      	ldr	r1, [pc, #88]	; (80002c4 <StartDefaultTask+0x94>)
 800026c:	4816      	ldr	r0, [pc, #88]	; (80002c8 <StartDefaultTask+0x98>)
 800026e:	f004 feb9 	bl	8004fe4 <siprintf>
 8000272:	4d16      	ldr	r5, [pc, #88]	; (80002cc <StartDefaultTask+0x9c>)
 8000274:	4f16      	ldr	r7, [pc, #88]	; (80002d0 <StartDefaultTask+0xa0>)
 8000276:	4c14      	ldr	r4, [pc, #80]	; (80002c8 <StartDefaultTask+0x98>)
 8000278:	4629      	mov	r1, r5
 800027a:	2205      	movs	r2, #5
 800027c:	4638      	mov	r0, r7
 800027e:	f003 f97a 	bl	8003576 <HAL_UART_Receive_IT>
 8000282:	210a      	movs	r1, #10
 8000284:	4632      	mov	r2, r6
 8000286:	4608      	mov	r0, r1
 8000288:	f001 f9a4 	bl	80015d4 <OLED_ShowString>
 800028c:	4629      	mov	r1, r5
 800028e:	4620      	mov	r0, r4
 8000290:	f004 fec8 	bl	8005024 <strcpy>
 8000294:	4622      	mov	r2, r4
 8000296:	2128      	movs	r1, #40	; 0x28
 8000298:	200a      	movs	r0, #10
 800029a:	f001 f99b 	bl	80015d4 <OLED_ShowString>
 800029e:	f44f 6180 	mov.w	r1, #1024	; 0x400
 80002a2:	480c      	ldr	r0, [pc, #48]	; (80002d4 <StartDefaultTask+0xa4>)
 80002a4:	f001 fff9 	bl	800229a <HAL_GPIO_TogglePin>
 80002a8:	f001 f8fa 	bl	80014a0 <OLED_Refresh_Gram>
 80002ac:	f44f 70fa 	mov.w	r0, #500	; 0x1f4
 80002b0:	f003 fa12 	bl	80036d8 <osDelay>
 80002b4:	e7e0      	b.n	8000278 <StartDefaultTask+0x48>
 80002b6:	bf00      	nop
 80002b8:	08005984 	.word	0x08005984
 80002bc:	20001b48 	.word	0x20001b48
 80002c0:	080059b3 	.word	0x080059b3
 80002c4:	08005998 	.word	0x08005998
 80002c8:	20001be5 	.word	0x20001be5
 80002cc:	20001b90 	.word	0x20001b90
 80002d0:	20001a3c 	.word	0x20001a3c
 80002d4:	40011800 	.word	0x40011800

080002d8 <leftmotor>:
 80002d8:	e92d 4ff0 	stmdb	sp!, {r4, r5, r6, r7, r8, r9, sl, fp, lr}
 80002dc:	2108      	movs	r1, #8
 80002de:	b089      	sub	sp, #36	; 0x24
 80002e0:	48a5      	ldr	r0, [pc, #660]	; (8000578 <leftmotor+0x2a0>)
 80002e2:	f002 fe79 	bl	8002fd8 <HAL_TIM_PWM_Start>
 80002e6:	213c      	movs	r1, #60	; 0x3c
 80002e8:	48a4      	ldr	r0, [pc, #656]	; (800057c <leftmotor+0x2a4>)
 80002ea:	f002 fb84 	bl	80029f6 <HAL_TIM_Encoder_Start>
 80002ee:	4fa4      	ldr	r7, [pc, #656]	; (8000580 <leftmotor+0x2a8>)
 80002f0:	4ca2      	ldr	r4, [pc, #648]	; (800057c <leftmotor+0x2a4>)
 80002f2:	48a4      	ldr	r0, [pc, #656]	; (8000584 <leftmotor+0x2ac>)
 80002f4:	f44f 757a 	mov.w	r5, #1000	; 0x3e8
 80002f8:	f004 fe30 	bl	8004f5c <atoi>
 80002fc:	fb90 f3f5 	sdiv	r3, r0, r5
 8000300:	fb05 0813 	mls	r8, r5, r3, r0
 8000304:	4d9c      	ldr	r5, [pc, #624]	; (8000578 <leftmotor+0x2a0>)
 8000306:	2b00      	cmp	r3, #0
 8000308:	f000 828a 	beq.w	8000820 <leftmotor+0x548>
 800030c:	3b0a      	subs	r3, #10
 800030e:	2b0c      	cmp	r3, #12
 8000310:	f200 8289 	bhi.w	8000826 <leftmotor+0x54e>
 8000314:	2b0c      	cmp	r3, #12
 8000316:	f200 8286 	bhi.w	8000826 <leftmotor+0x54e>
 800031a:	e8df f013 	tbh	[pc, r3, lsl #1]
 800031e:	000d      	.short	0x000d
 8000320:	013b0069 	.word	0x013b0069
 8000324:	02840284 	.word	0x02840284
 8000328:	02840284 	.word	0x02840284
 800032c:	02840284 	.word	0x02840284
 8000330:	01ee0284 	.word	0x01ee0284
 8000334:	0261024b 	.word	0x0261024b
 8000338:	6823      	ldr	r3, [r4, #0]
 800033a:	2201      	movs	r2, #1
 800033c:	f44f 5180 	mov.w	r1, #4096	; 0x1000
 8000340:	4891      	ldr	r0, [pc, #580]	; (8000588 <leftmotor+0x2b0>)
 8000342:	6a5e      	ldr	r6, [r3, #36]	; 0x24
 8000344:	f001 ffa4 	bl	8002290 <HAL_GPIO_WritePin>
 8000348:	2200      	movs	r2, #0
 800034a:	2120      	movs	r1, #32
 800034c:	4638      	mov	r0, r7
 800034e:	f001 ff9f 	bl	8002290 <HAL_GPIO_WritePin>
 8000352:	f240 52dc 	movw	r2, #1500	; 0x5dc
 8000356:	682b      	ldr	r3, [r5, #0]
 8000358:	f44f 7502 	mov.w	r5, #520	; 0x208
 800035c:	63da      	str	r2, [r3, #60]	; 0x3c
 800035e:	f001 fc43 	bl	8001be8 <HAL_GetTick>
 8000362:	fb05 f508 	mul.w	r5, r5, r8
 8000366:	4602      	mov	r2, r0
 8000368:	f04f 0b00 	mov.w	fp, #0
 800036c:	f64f 78ff 	movw	r8, #65535	; 0xffff
 8000370:	f8df 921c 	ldr.w	r9, [pc, #540]	; 8000590 <leftmotor+0x2b8>
 8000374:	f109 0a07 	add.w	sl, r9, #7
 8000378:	45ab      	cmp	fp, r5
 800037a:	d2ba      	bcs.n	80002f2 <leftmotor+0x1a>
 800037c:	9201      	str	r2, [sp, #4]
 800037e:	f001 fc33 	bl	8001be8 <HAL_GetTick>
 8000382:	9a01      	ldr	r2, [sp, #4]
 8000384:	1a80      	subs	r0, r0, r2
 8000386:	2832      	cmp	r0, #50	; 0x32
 8000388:	d9f6      	bls.n	8000378 <leftmotor+0xa0>
 800038a:	6823      	ldr	r3, [r4, #0]
 800038c:	6a5a      	ldr	r2, [r3, #36]	; 0x24
 800038e:	681b      	ldr	r3, [r3, #0]
 8000390:	06d9      	lsls	r1, r3, #27
 8000392:	d526      	bpl.n	80003e2 <leftmotor+0x10a>
 8000394:	4296      	cmp	r6, r2
 8000396:	dd20      	ble.n	80003da <leftmotor+0x102>
 8000398:	1ab3      	subs	r3, r6, r2
 800039a:	461a      	mov	r2, r3
 800039c:	4649      	mov	r1, r9
 800039e:	a803      	add	r0, sp, #12
 80003a0:	9301      	str	r3, [sp, #4]
 80003a2:	f004 fe1f 	bl	8004fe4 <siprintf>
 80003a6:	2114      	movs	r1, #20
 80003a8:	2032      	movs	r0, #50	; 0x32
 80003aa:	aa03      	add	r2, sp, #12
 80003ac:	f001 f912 	bl	80015d4 <OLED_ShowString>
 80003b0:	6822      	ldr	r2, [r4, #0]
 80003b2:	4651      	mov	r1, sl
 80003b4:	6812      	ldr	r2, [r2, #0]
 80003b6:	a803      	add	r0, sp, #12
 80003b8:	f3c2 1200 	ubfx	r2, r2, #4, #1
 80003bc:	f004 fe12 	bl	8004fe4 <siprintf>
 80003c0:	2114      	movs	r1, #20
 80003c2:	200a      	movs	r0, #10
 80003c4:	aa03      	add	r2, sp, #12
 80003c6:	f001 f905 	bl	80015d4 <OLED_ShowString>
 80003ca:	6822      	ldr	r2, [r4, #0]
 80003cc:	6a56      	ldr	r6, [r2, #36]	; 0x24
 80003ce:	f001 fc0b 	bl	8001be8 <HAL_GetTick>
 80003d2:	9b01      	ldr	r3, [sp, #4]
 80003d4:	4602      	mov	r2, r0
 80003d6:	449b      	add	fp, r3
 80003d8:	e7ce      	b.n	8000378 <leftmotor+0xa0>
 80003da:	eba8 0202 	sub.w	r2, r8, r2
 80003de:	18b3      	adds	r3, r6, r2
 80003e0:	e7db      	b.n	800039a <leftmotor+0xc2>
 80003e2:	4296      	cmp	r6, r2
 80003e4:	da01      	bge.n	80003ea <leftmotor+0x112>
 80003e6:	1b93      	subs	r3, r2, r6
 80003e8:	e7d7      	b.n	800039a <leftmotor+0xc2>
 80003ea:	eba8 0606 	sub.w	r6, r8, r6
 80003ee:	e7f6      	b.n	80003de <leftmotor+0x106>
 80003f0:	6823      	ldr	r3, [r4, #0]
 80003f2:	2201      	movs	r2, #1
 80003f4:	f44f 5180 	mov.w	r1, #4096	; 0x1000
 80003f8:	4863      	ldr	r0, [pc, #396]	; (8000588 <leftmotor+0x2b0>)
 80003fa:	6a5e      	ldr	r6, [r3, #36]	; 0x24
 80003fc:	f001 ff48 	bl	8002290 <HAL_GPIO_WritePin>
 8000400:	2200      	movs	r2, #0
 8000402:	2120      	movs	r1, #32
 8000404:	4638      	mov	r0, r7
 8000406:	f001 ff43 	bl	8002290 <HAL_GPIO_WritePin>
 800040a:	f240 52dc 	movw	r2, #1500	; 0x5dc
 800040e:	682b      	ldr	r3, [r5, #0]
 8000410:	f04f 0b00 	mov.w	fp, #0
 8000414:	63da      	str	r2, [r3, #60]	; 0x3c
 8000416:	f001 fbe7 	bl	8001be8 <HAL_GetTick>
 800041a:	f64f 78ff 	movw	r8, #65535	; 0xffff
 800041e:	4602      	mov	r2, r0
 8000420:	f8df 916c 	ldr.w	r9, [pc, #364]	; 8000590 <leftmotor+0x2b8>
 8000424:	f109 0a07 	add.w	sl, r9, #7
 8000428:	f5bb 7fd0 	cmp.w	fp, #416	; 0x1a0
 800042c:	d32d      	bcc.n	800048a <leftmotor+0x1b2>
 800042e:	f04f 0b00 	mov.w	fp, #0
 8000432:	682b      	ldr	r3, [r5, #0]
 8000434:	2201      	movs	r2, #1
 8000436:	f8c3 b03c 	str.w	fp, [r3, #60]	; 0x3c
 800043a:	6823      	ldr	r3, [r4, #0]
 800043c:	f44f 5180 	mov.w	r1, #4096	; 0x1000
 8000440:	4851      	ldr	r0, [pc, #324]	; (8000588 <leftmotor+0x2b0>)
 8000442:	6a5e      	ldr	r6, [r3, #36]	; 0x24
 8000444:	f001 ff24 	bl	8002290 <HAL_GPIO_WritePin>
 8000448:	465a      	mov	r2, fp
 800044a:	2120      	movs	r1, #32
 800044c:	4638      	mov	r0, r7
 800044e:	f001 ff1f 	bl	8002290 <HAL_GPIO_WritePin>
 8000452:	f240 52dc 	movw	r2, #1500	; 0x5dc
 8000456:	682b      	ldr	r3, [r5, #0]
 8000458:	f640 4997 	movw	r9, #3223	; 0xc97
 800045c:	63da      	str	r2, [r3, #60]	; 0x3c
 800045e:	f001 fbc3 	bl	8001be8 <HAL_GetTick>
 8000462:	4602      	mov	r2, r0
 8000464:	f8df 8128 	ldr.w	r8, [pc, #296]	; 8000590 <leftmotor+0x2b8>
 8000468:	f108 0a07 	add.w	sl, r8, #7
 800046c:	45cb      	cmp	fp, r9
 800046e:	d946      	bls.n	80004fe <leftmotor+0x226>
 8000470:	2300      	movs	r3, #0
 8000472:	682a      	ldr	r2, [r5, #0]
 8000474:	63d3      	str	r3, [r2, #60]	; 0x3c
 8000476:	4a45      	ldr	r2, [pc, #276]	; (800058c <leftmotor+0x2b4>)
 8000478:	7013      	strb	r3, [r2, #0]
 800047a:	20c8      	movs	r0, #200	; 0xc8
 800047c:	f003 f92c 	bl	80036d8 <osDelay>
 8000480:	f44f 707a 	mov.w	r0, #1000	; 0x3e8
 8000484:	f003 f928 	bl	80036d8 <osDelay>
 8000488:	e733      	b.n	80002f2 <leftmotor+0x1a>
 800048a:	9201      	str	r2, [sp, #4]
 800048c:	f001 fbac 	bl	8001be8 <HAL_GetTick>
 8000490:	9a01      	ldr	r2, [sp, #4]
 8000492:	1a80      	subs	r0, r0, r2
 8000494:	2832      	cmp	r0, #50	; 0x32
 8000496:	d9c7      	bls.n	8000428 <leftmotor+0x150>
 8000498:	6823      	ldr	r3, [r4, #0]
 800049a:	6a5a      	ldr	r2, [r3, #36]	; 0x24
 800049c:	681b      	ldr	r3, [r3, #0]
 800049e:	06db      	lsls	r3, r3, #27
 80004a0:	d526      	bpl.n	80004f0 <leftmotor+0x218>
 80004a2:	4296      	cmp	r6, r2
 80004a4:	dd20      	ble.n	80004e8 <leftmotor+0x210>
 80004a6:	1ab3      	subs	r3, r6, r2
 80004a8:	461a      	mov	r2, r3
 80004aa:	4649      	mov	r1, r9
 80004ac:	a803      	add	r0, sp, #12
 80004ae:	9301      	str	r3, [sp, #4]
 80004b0:	f004 fd98 	bl	8004fe4 <siprintf>
 80004b4:	2114      	movs	r1, #20
 80004b6:	2032      	movs	r0, #50	; 0x32
 80004b8:	aa03      	add	r2, sp, #12
 80004ba:	f001 f88b 	bl	80015d4 <OLED_ShowString>
 80004be:	6822      	ldr	r2, [r4, #0]
 80004c0:	4651      	mov	r1, sl
 80004c2:	6812      	ldr	r2, [r2, #0]
 80004c4:	a803      	add	r0, sp, #12
 80004c6:	f3c2 1200 	ubfx	r2, r2, #4, #1
 80004ca:	f004 fd8b 	bl	8004fe4 <siprintf>
 80004ce:	2114      	movs	r1, #20
 80004d0:	200a      	movs	r0, #10
 80004d2:	aa03      	add	r2, sp, #12
 80004d4:	f001 f87e 	bl	80015d4 <OLED_ShowString>
 80004d8:	6822      	ldr	r2, [r4, #0]
 80004da:	6a56      	ldr	r6, [r2, #36]	; 0x24
 80004dc:	f001 fb84 	bl	8001be8 <HAL_GetTick>
 80004e0:	9b01      	ldr	r3, [sp, #4]
 80004e2:	4602      	mov	r2, r0
 80004e4:	449b      	add	fp, r3
 80004e6:	e79f      	b.n	8000428 <leftmotor+0x150>
 80004e8:	eba8 0202 	sub.w	r2, r8, r2
 80004ec:	18b3      	adds	r3, r6, r2
 80004ee:	e7db      	b.n	80004a8 <leftmotor+0x1d0>
 80004f0:	4296      	cmp	r6, r2
 80004f2:	da01      	bge.n	80004f8 <leftmotor+0x220>
 80004f4:	1b93      	subs	r3, r2, r6
 80004f6:	e7d7      	b.n	80004a8 <leftmotor+0x1d0>
 80004f8:	eba8 0606 	sub.w	r6, r8, r6
 80004fc:	e7f6      	b.n	80004ec <leftmotor+0x214>
 80004fe:	9201      	str	r2, [sp, #4]
 8000500:	f001 fb72 	bl	8001be8 <HAL_GetTick>
 8000504:	9a01      	ldr	r2, [sp, #4]
 8000506:	1a80      	subs	r0, r0, r2
 8000508:	2832      	cmp	r0, #50	; 0x32
 800050a:	d9af      	bls.n	800046c <leftmotor+0x194>
 800050c:	6822      	ldr	r2, [r4, #0]
 800050e:	6a53      	ldr	r3, [r2, #36]	; 0x24
 8000510:	6812      	ldr	r2, [r2, #0]
 8000512:	06d0      	lsls	r0, r2, #27
 8000514:	d527      	bpl.n	8000566 <leftmotor+0x28e>
 8000516:	429e      	cmp	r6, r3
 8000518:	dd20      	ble.n	800055c <leftmotor+0x284>
 800051a:	1af3      	subs	r3, r6, r3
 800051c:	461a      	mov	r2, r3
 800051e:	4641      	mov	r1, r8
 8000520:	a803      	add	r0, sp, #12
 8000522:	9301      	str	r3, [sp, #4]
 8000524:	f004 fd5e 	bl	8004fe4 <siprintf>
 8000528:	2114      	movs	r1, #20
 800052a:	2032      	movs	r0, #50	; 0x32
 800052c:	aa03      	add	r2, sp, #12
 800052e:	f001 f851 	bl	80015d4 <OLED_ShowString>
 8000532:	6822      	ldr	r2, [r4, #0]
 8000534:	4651      	mov	r1, sl
 8000536:	6812      	ldr	r2, [r2, #0]
 8000538:	a803      	add	r0, sp, #12
 800053a:	f3c2 1200 	ubfx	r2, r2, #4, #1
 800053e:	f004 fd51 	bl	8004fe4 <siprintf>
 8000542:	2114      	movs	r1, #20
 8000544:	200a      	movs	r0, #10
 8000546:	aa03      	add	r2, sp, #12
 8000548:	f001 f844 	bl	80015d4 <OLED_ShowString>
 800054c:	6822      	ldr	r2, [r4, #0]
 800054e:	6a56      	ldr	r6, [r2, #36]	; 0x24
 8000550:	f001 fb4a 	bl	8001be8 <HAL_GetTick>
 8000554:	9b01      	ldr	r3, [sp, #4]
 8000556:	4602      	mov	r2, r0
 8000558:	449b      	add	fp, r3
 800055a:	e787      	b.n	800046c <leftmotor+0x194>
 800055c:	f5c3 437f 	rsb	r3, r3, #65280	; 0xff00
 8000560:	33ff      	adds	r3, #255	; 0xff
 8000562:	4433      	add	r3, r6
 8000564:	e7da      	b.n	800051c <leftmotor+0x244>
 8000566:	429e      	cmp	r6, r3
 8000568:	da01      	bge.n	800056e <leftmotor+0x296>
 800056a:	1b9b      	subs	r3, r3, r6
 800056c:	e7d6      	b.n	800051c <leftmotor+0x244>
 800056e:	f5c6 467f 	rsb	r6, r6, #65280	; 0xff00
 8000572:	36ff      	adds	r6, #255	; 0xff
 8000574:	e7f5      	b.n	8000562 <leftmotor+0x28a>
 8000576:	bf00      	nop
 8000578:	200019ac 	.word	0x200019ac
 800057c:	200019f4 	.word	0x200019f4
 8000580:	40011000 	.word	0x40011000
 8000584:	20001be5 	.word	0x20001be5
 8000588:	40011800 	.word	0x40011800
 800058c:	20000090 	.word	0x20000090
 8000590:	0800599c 	.word	0x0800599c
 8000594:	6823      	ldr	r3, [r4, #0]
 8000596:	2201      	movs	r2, #1
 8000598:	f44f 5180 	mov.w	r1, #4096	; 0x1000
 800059c:	48a4      	ldr	r0, [pc, #656]	; (8000830 <leftmotor+0x558>)
 800059e:	6a5e      	ldr	r6, [r3, #36]	; 0x24
 80005a0:	f001 fe76 	bl	8002290 <HAL_GPIO_WritePin>
 80005a4:	2200      	movs	r2, #0
 80005a6:	2120      	movs	r1, #32
 80005a8:	4638      	mov	r0, r7
 80005aa:	f001 fe71 	bl	8002290 <HAL_GPIO_WritePin>
 80005ae:	f240 52dc 	movw	r2, #1500	; 0x5dc
 80005b2:	682b      	ldr	r3, [r5, #0]
 80005b4:	f04f 0b00 	mov.w	fp, #0
 80005b8:	63da      	str	r2, [r3, #60]	; 0x3c
 80005ba:	f001 fb15 	bl	8001be8 <HAL_GetTick>
 80005be:	f64f 78ff 	movw	r8, #65535	; 0xffff
 80005c2:	4602      	mov	r2, r0
 80005c4:	f8df 9270 	ldr.w	r9, [pc, #624]	; 8000838 <leftmotor+0x560>
 80005c8:	f109 0a07 	add.w	sl, r9, #7
 80005cc:	f5bb 7fd0 	cmp.w	fp, #416	; 0x1a0
 80005d0:	d352      	bcc.n	8000678 <leftmotor+0x3a0>
 80005d2:	f04f 0b00 	mov.w	fp, #0
 80005d6:	682b      	ldr	r3, [r5, #0]
 80005d8:	2201      	movs	r2, #1
 80005da:	f8c3 b03c 	str.w	fp, [r3, #60]	; 0x3c
 80005de:	6823      	ldr	r3, [r4, #0]
 80005e0:	f44f 5180 	mov.w	r1, #4096	; 0x1000
 80005e4:	4892      	ldr	r0, [pc, #584]	; (8000830 <leftmotor+0x558>)
 80005e6:	6a5e      	ldr	r6, [r3, #36]	; 0x24
 80005e8:	f001 fe52 	bl	8002290 <HAL_GPIO_WritePin>
 80005ec:	465a      	mov	r2, fp
 80005ee:	2120      	movs	r1, #32
 80005f0:	4638      	mov	r0, r7
 80005f2:	f001 fe4d 	bl	8002290 <HAL_GPIO_WritePin>
 80005f6:	f44f 72c8 	mov.w	r2, #400	; 0x190
 80005fa:	682b      	ldr	r3, [r5, #0]
 80005fc:	f64f 78ff 	movw	r8, #65535	; 0xffff
 8000600:	63da      	str	r2, [r3, #60]	; 0x3c
 8000602:	f001 faf1 	bl	8001be8 <HAL_GetTick>
 8000606:	4603      	mov	r3, r0
 8000608:	f8df 922c 	ldr.w	r9, [pc, #556]	; 8000838 <leftmotor+0x560>
 800060c:	f109 0a07 	add.w	sl, r9, #7
 8000610:	f5bb 7fc3 	cmp.w	fp, #390	; 0x186
 8000614:	f4bf af31 	bcs.w	800047a <leftmotor+0x1a2>
 8000618:	9301      	str	r3, [sp, #4]
 800061a:	f001 fae5 	bl	8001be8 <HAL_GetTick>
 800061e:	9b01      	ldr	r3, [sp, #4]
 8000620:	1ac0      	subs	r0, r0, r3
 8000622:	2832      	cmp	r0, #50	; 0x32
 8000624:	d9f4      	bls.n	8000610 <leftmotor+0x338>
 8000626:	6822      	ldr	r2, [r4, #0]
 8000628:	6a53      	ldr	r3, [r2, #36]	; 0x24
 800062a:	6812      	ldr	r2, [r2, #0]
 800062c:	06d2      	lsls	r2, r2, #27
 800062e:	d55d      	bpl.n	80006ec <leftmotor+0x414>
 8000630:	429e      	cmp	r6, r3
 8000632:	bfd6      	itet	le
 8000634:	eba8 0303 	suble.w	r3, r8, r3
 8000638:	1af5      	subgt	r5, r6, r3
 800063a:	199d      	addle	r5, r3, r6
 800063c:	462a      	mov	r2, r5
 800063e:	4649      	mov	r1, r9
 8000640:	a803      	add	r0, sp, #12
 8000642:	f004 fccf 	bl	8004fe4 <siprintf>
 8000646:	2114      	movs	r1, #20
 8000648:	2032      	movs	r0, #50	; 0x32
 800064a:	aa03      	add	r2, sp, #12
 800064c:	f000 ffc2 	bl	80015d4 <OLED_ShowString>
 8000650:	6823      	ldr	r3, [r4, #0]
 8000652:	4651      	mov	r1, sl
 8000654:	681a      	ldr	r2, [r3, #0]
 8000656:	a803      	add	r0, sp, #12
 8000658:	f3c2 1200 	ubfx	r2, r2, #4, #1
 800065c:	f004 fcc2 	bl	8004fe4 <siprintf>
 8000660:	2114      	movs	r1, #20
 8000662:	200a      	movs	r0, #10
 8000664:	aa03      	add	r2, sp, #12
 8000666:	f000 ffb5 	bl	80015d4 <OLED_ShowString>
 800066a:	6823      	ldr	r3, [r4, #0]
 800066c:	44ab      	add	fp, r5
 800066e:	6a5e      	ldr	r6, [r3, #36]	; 0x24
 8000670:	f001 faba 	bl	8001be8 <HAL_GetTick>
 8000674:	4603      	mov	r3, r0
 8000676:	e7cb      	b.n	8000610 <leftmotor+0x338>
 8000678:	9201      	str	r2, [sp, #4]
 800067a:	f001 fab5 	bl	8001be8 <HAL_GetTick>
 800067e:	9a01      	ldr	r2, [sp, #4]
 8000680:	1a80      	subs	r0, r0, r2
 8000682:	2832      	cmp	r0, #50	; 0x32
 8000684:	d9a2      	bls.n	80005cc <leftmotor+0x2f4>
 8000686:	6823      	ldr	r3, [r4, #0]
 8000688:	6a5a      	ldr	r2, [r3, #36]	; 0x24
 800068a:	681b      	ldr	r3, [r3, #0]
 800068c:	06d9      	lsls	r1, r3, #27
 800068e:	d526      	bpl.n	80006de <leftmotor+0x406>
 8000690:	4296      	cmp	r6, r2
 8000692:	dd20      	ble.n	80006d6 <leftmotor+0x3fe>
 8000694:	1ab3      	subs	r3, r6, r2
 8000696:	461a      	mov	r2, r3
 8000698:	4649      	mov	r1, r9
 800069a:	a803      	add	r0, sp, #12
 800069c:	9301      	str	r3, [sp, #4]
 800069e:	f004 fca1 	bl	8004fe4 <siprintf>
 80006a2:	2114      	movs	r1, #20
 80006a4:	2032      	movs	r0, #50	; 0x32
 80006a6:	aa03      	add	r2, sp, #12
 80006a8:	f000 ff94 	bl	80015d4 <OLED_ShowString>
 80006ac:	6822      	ldr	r2, [r4, #0]
 80006ae:	4651      	mov	r1, sl
 80006b0:	6812      	ldr	r2, [r2, #0]
 80006b2:	a803      	add	r0, sp, #12
 80006b4:	f3c2 1200 	ubfx	r2, r2, #4, #1
 80006b8:	f004 fc94 	bl	8004fe4 <siprintf>
 80006bc:	2114      	movs	r1, #20
 80006be:	200a      	movs	r0, #10
 80006c0:	aa03      	add	r2, sp, #12
 80006c2:	f000 ff87 	bl	80015d4 <OLED_ShowString>
 80006c6:	6822      	ldr	r2, [r4, #0]
 80006c8:	6a56      	ldr	r6, [r2, #36]	; 0x24
 80006ca:	f001 fa8d 	bl	8001be8 <HAL_GetTick>
 80006ce:	9b01      	ldr	r3, [sp, #4]
 80006d0:	4602      	mov	r2, r0
 80006d2:	449b      	add	fp, r3
 80006d4:	e77a      	b.n	80005cc <leftmotor+0x2f4>
 80006d6:	eba8 0202 	sub.w	r2, r8, r2
 80006da:	18b3      	adds	r3, r6, r2
 80006dc:	e7db      	b.n	8000696 <leftmotor+0x3be>
 80006de:	4296      	cmp	r6, r2
 80006e0:	da01      	bge.n	80006e6 <leftmotor+0x40e>
 80006e2:	1b93      	subs	r3, r2, r6
 80006e4:	e7d7      	b.n	8000696 <leftmotor+0x3be>
 80006e6:	eba8 0606 	sub.w	r6, r8, r6
 80006ea:	e7f6      	b.n	80006da <leftmotor+0x402>
 80006ec:	429e      	cmp	r6, r3
 80006ee:	bfaa      	itet	ge
 80006f0:	eba8 0506 	subge.w	r5, r8, r6
 80006f4:	1b9d      	sublt	r5, r3, r6
 80006f6:	18ed      	addge	r5, r5, r3
 80006f8:	e7a0      	b.n	800063c <leftmotor+0x364>
 80006fa:	6823      	ldr	r3, [r4, #0]
 80006fc:	2200      	movs	r2, #0
 80006fe:	f44f 5180 	mov.w	r1, #4096	; 0x1000
 8000702:	484b      	ldr	r0, [pc, #300]	; (8000830 <leftmotor+0x558>)
 8000704:	6a5e      	ldr	r6, [r3, #36]	; 0x24
 8000706:	f001 fdc3 	bl	8002290 <HAL_GPIO_WritePin>
 800070a:	2201      	movs	r2, #1
 800070c:	2120      	movs	r1, #32
 800070e:	4638      	mov	r0, r7
 8000710:	f001 fdbe 	bl	8002290 <HAL_GPIO_WritePin>
 8000714:	f240 52dc 	movw	r2, #1500	; 0x5dc
 8000718:	682b      	ldr	r3, [r5, #0]
 800071a:	f44f 7502 	mov.w	r5, #520	; 0x208
 800071e:	63da      	str	r2, [r3, #60]	; 0x3c
 8000720:	f001 fa62 	bl	8001be8 <HAL_GetTick>
 8000724:	fb05 f508 	mul.w	r5, r5, r8
 8000728:	4602      	mov	r2, r0
 800072a:	f04f 0b00 	mov.w	fp, #0
 800072e:	f64f 78ff 	movw	r8, #65535	; 0xffff
 8000732:	f8df 9104 	ldr.w	r9, [pc, #260]	; 8000838 <leftmotor+0x560>
 8000736:	f109 0a07 	add.w	sl, r9, #7
 800073a:	45ab      	cmp	fp, r5
 800073c:	f4bf add9 	bcs.w	80002f2 <leftmotor+0x1a>
 8000740:	9201      	str	r2, [sp, #4]
 8000742:	f001 fa51 	bl	8001be8 <HAL_GetTick>
 8000746:	9a01      	ldr	r2, [sp, #4]
 8000748:	1a80      	subs	r0, r0, r2
 800074a:	2832      	cmp	r0, #50	; 0x32
 800074c:	d9f5      	bls.n	800073a <leftmotor+0x462>
 800074e:	6823      	ldr	r3, [r4, #0]
 8000750:	6a5a      	ldr	r2, [r3, #36]	; 0x24
 8000752:	681b      	ldr	r3, [r3, #0]
 8000754:	06db      	lsls	r3, r3, #27
 8000756:	d526      	bpl.n	80007a6 <leftmotor+0x4ce>
 8000758:	42b2      	cmp	r2, r6
 800075a:	da20      	bge.n	800079e <leftmotor+0x4c6>
 800075c:	1ab3      	subs	r3, r6, r2
 800075e:	461a      	mov	r2, r3
 8000760:	4649      	mov	r1, r9
 8000762:	a803      	add	r0, sp, #12
 8000764:	9301      	str	r3, [sp, #4]
 8000766:	f004 fc3d 	bl	8004fe4 <siprintf>
 800076a:	2114      	movs	r1, #20
 800076c:	2032      	movs	r0, #50	; 0x32
 800076e:	aa03      	add	r2, sp, #12
 8000770:	f000 ff30 	bl	80015d4 <OLED_ShowString>
 8000774:	6822      	ldr	r2, [r4, #0]
 8000776:	4651      	mov	r1, sl
 8000778:	6812      	ldr	r2, [r2, #0]
 800077a:	a803      	add	r0, sp, #12
 800077c:	f3c2 1200 	ubfx	r2, r2, #4, #1
 8000780:	f004 fc30 	bl	8004fe4 <siprintf>
 8000784:	2114      	movs	r1, #20
 8000786:	200a      	movs	r0, #10
 8000788:	aa03      	add	r2, sp, #12
 800078a:	f000 ff23 	bl	80015d4 <OLED_ShowString>
 800078e:	6822      	ldr	r2, [r4, #0]
 8000790:	6a56      	ldr	r6, [r2, #36]	; 0x24
 8000792:	f001 fa29 	bl	8001be8 <HAL_GetTick>
 8000796:	9b01      	ldr	r3, [sp, #4]
 8000798:	4602      	mov	r2, r0
 800079a:	449b      	add	fp, r3
 800079c:	e7cd      	b.n	800073a <leftmotor+0x462>
 800079e:	eba8 0202 	sub.w	r2, r8, r2
 80007a2:	18b3      	adds	r3, r6, r2
 80007a4:	e7db      	b.n	800075e <leftmotor+0x486>
 80007a6:	42b2      	cmp	r2, r6
 80007a8:	dd01      	ble.n	80007ae <leftmotor+0x4d6>
 80007aa:	1b93      	subs	r3, r2, r6
 80007ac:	e7d7      	b.n	800075e <leftmotor+0x486>
 80007ae:	eba8 0606 	sub.w	r6, r8, r6
 80007b2:	e7f6      	b.n	80007a2 <leftmotor+0x4ca>
 80007b4:	2064      	movs	r0, #100	; 0x64
 80007b6:	f002 ff8f 	bl	80036d8 <osDelay>
 80007ba:	2200      	movs	r2, #0
 80007bc:	f44f 5180 	mov.w	r1, #4096	; 0x1000
 80007c0:	481b      	ldr	r0, [pc, #108]	; (8000830 <leftmotor+0x558>)
 80007c2:	f001 fd65 	bl	8002290 <HAL_GPIO_WritePin>
 80007c6:	2201      	movs	r2, #1
 80007c8:	4638      	mov	r0, r7
 80007ca:	2120      	movs	r1, #32
 80007cc:	f001 fd60 	bl	8002290 <HAL_GPIO_WritePin>
 80007d0:	f240 52dc 	movw	r2, #1500	; 0x5dc
 80007d4:	202c      	movs	r0, #44	; 0x2c
 80007d6:	682b      	ldr	r3, [r5, #0]
 80007d8:	fb00 f008 	mul.w	r0, r0, r8
 80007dc:	63da      	str	r2, [r3, #60]	; 0x3c
 80007de:	e651      	b.n	8000484 <leftmotor+0x1ac>
 80007e0:	2064      	movs	r0, #100	; 0x64
 80007e2:	f002 ff79 	bl	80036d8 <osDelay>
 80007e6:	2200      	movs	r2, #0
 80007e8:	f44f 5180 	mov.w	r1, #4096	; 0x1000
 80007ec:	4810      	ldr	r0, [pc, #64]	; (8000830 <leftmotor+0x558>)
 80007ee:	f001 fd4f 	bl	8002290 <HAL_GPIO_WritePin>
 80007f2:	2201      	movs	r2, #1
 80007f4:	2120      	movs	r1, #32
 80007f6:	4638      	mov	r0, r7
 80007f8:	f001 fd4a 	bl	8002290 <HAL_GPIO_WritePin>
 80007fc:	f44f 72c8 	mov.w	r2, #400	; 0x190
 8000800:	2025      	movs	r0, #37	; 0x25
 8000802:	682b      	ldr	r3, [r5, #0]
 8000804:	fb00 f008 	mul.w	r0, r0, r8
 8000808:	63da      	str	r2, [r3, #60]	; 0x3c
 800080a:	f002 ff65 	bl	80036d8 <osDelay>
 800080e:	2255      	movs	r2, #85	; 0x55
 8000810:	4b08      	ldr	r3, [pc, #32]	; (8000834 <leftmotor+0x55c>)
 8000812:	2064      	movs	r0, #100	; 0x64
 8000814:	681b      	ldr	r3, [r3, #0]
 8000816:	641a      	str	r2, [r3, #64]	; 0x40
 8000818:	2200      	movs	r2, #0
 800081a:	682b      	ldr	r3, [r5, #0]
 800081c:	63da      	str	r2, [r3, #60]	; 0x3c
 800081e:	e631      	b.n	8000484 <leftmotor+0x1ac>
 8000820:	682a      	ldr	r2, [r5, #0]
 8000822:	63d3      	str	r3, [r2, #60]	; 0x3c
 8000824:	e565      	b.n	80002f2 <leftmotor+0x1a>
 8000826:	2200      	movs	r2, #0
 8000828:	682b      	ldr	r3, [r5, #0]
 800082a:	63da      	str	r2, [r3, #60]	; 0x3c
 800082c:	e561      	b.n	80002f2 <leftmotor+0x1a>
 800082e:	bf00      	nop
 8000830:	40011800 	.word	0x40011800
 8000834:	20001b48 	.word	0x20001b48
 8000838:	0800599c 	.word	0x0800599c

0800083c <sensor>:
 800083c:	b510      	push	{r4, lr}
 800083e:	4c0a      	ldr	r4, [pc, #40]	; (8000868 <sensor+0x2c>)
 8000840:	213c      	movs	r1, #60	; 0x3c
 8000842:	4620      	mov	r0, r4
 8000844:	f002 f8d7 	bl	80029f6 <HAL_TIM_Encoder_Start>
 8000848:	6823      	ldr	r3, [r4, #0]
 800084a:	4c08      	ldr	r4, [pc, #32]	; (800086c <sensor+0x30>)
 800084c:	213c      	movs	r1, #60	; 0x3c
 800084e:	4620      	mov	r0, r4
 8000850:	6a5b      	ldr	r3, [r3, #36]	; 0x24
 8000852:	f002 f8d0 	bl	80029f6 <HAL_TIM_Encoder_Start>
 8000856:	6823      	ldr	r3, [r4, #0]
 8000858:	6a5b      	ldr	r3, [r3, #36]	; 0x24
 800085a:	f001 f9c5 	bl	8001be8 <HAL_GetTick>
 800085e:	2001      	movs	r0, #1
 8000860:	f002 ff3a 	bl	80036d8 <osDelay>
 8000864:	e7fb      	b.n	800085e <sensor+0x22>
 8000866:	bf00      	nop
 8000868:	20001a80 	.word	0x20001a80
 800086c:	200019f4 	.word	0x200019f4

08000870 <rightmotor>:
 8000870:	e92d 4ff0 	stmdb	sp!, {r4, r5, r6, r7, r8, r9, sl, fp, lr}
 8000874:	210c      	movs	r1, #12
 8000876:	b089      	sub	sp, #36	; 0x24
 8000878:	48b9      	ldr	r0, [pc, #740]	; (8000b60 <rightmotor+0x2f0>)
 800087a:	f002 fbad 	bl	8002fd8 <HAL_TIM_PWM_Start>
 800087e:	213c      	movs	r1, #60	; 0x3c
 8000880:	48b8      	ldr	r0, [pc, #736]	; (8000b64 <rightmotor+0x2f4>)
 8000882:	f002 f8b8 	bl	80029f6 <HAL_TIM_Encoder_Start>
 8000886:	2701      	movs	r7, #1
 8000888:	4cb6      	ldr	r4, [pc, #728]	; (8000b64 <rightmotor+0x2f4>)
 800088a:	48b7      	ldr	r0, [pc, #732]	; (8000b68 <rightmotor+0x2f8>)
 800088c:	f004 fb66 	bl	8004f5c <atoi>
 8000890:	f44f 787a 	mov.w	r8, #1000	; 0x3e8
 8000894:	fb90 f6f8 	sdiv	r6, r0, r8
 8000898:	4db1      	ldr	r5, [pc, #708]	; (8000b60 <rightmotor+0x2f0>)
 800089a:	fb08 0916 	mls	r9, r8, r6, r0
 800089e:	2e00      	cmp	r6, #0
 80008a0:	f000 82f0 	beq.w	8000e84 <rightmotor+0x614>
 80008a4:	f1a6 030a 	sub.w	r3, r6, #10
 80008a8:	2b0c      	cmp	r3, #12
 80008aa:	4eb0      	ldr	r6, [pc, #704]	; (8000b6c <rightmotor+0x2fc>)
 80008ac:	f200 8301 	bhi.w	8000eb2 <rightmotor+0x642>
 80008b0:	2b0c      	cmp	r3, #12
 80008b2:	f200 82fe 	bhi.w	8000eb2 <rightmotor+0x642>
 80008b6:	e8df f013 	tbh	[pc, r3, lsl #1]
 80008ba:	000d      	.short	0x000d
 80008bc:	01630070 	.word	0x01630070
 80008c0:	02fc02fc 	.word	0x02fc02fc
 80008c4:	02fc02fc 	.word	0x02fc02fc
 80008c8:	02fc02fc 	.word	0x02fc02fc
 80008cc:	023a02fc 	.word	0x023a02fc
 80008d0:	02b9029b 	.word	0x02b9029b
 80008d4:	224a      	movs	r2, #74	; 0x4a
 80008d6:	6823      	ldr	r3, [r4, #0]
 80008d8:	f44f 4100 	mov.w	r1, #32768	; 0x8000
 80008dc:	6a5f      	ldr	r7, [r3, #36]	; 0x24
 80008de:	6833      	ldr	r3, [r6, #0]
 80008e0:	48a3      	ldr	r0, [pc, #652]	; (8000b70 <rightmotor+0x300>)
 80008e2:	641a      	str	r2, [r3, #64]	; 0x40
 80008e4:	2201      	movs	r2, #1
 80008e6:	f001 fcd3 	bl	8002290 <HAL_GPIO_WritePin>
 80008ea:	2200      	movs	r2, #0
 80008ec:	f44f 6100 	mov.w	r1, #2048	; 0x800
 80008f0:	489f      	ldr	r0, [pc, #636]	; (8000b70 <rightmotor+0x300>)
 80008f2:	f001 fccd 	bl	8002290 <HAL_GPIO_WritePin>
 80008f6:	f44f 727a 	mov.w	r2, #1000	; 0x3e8
 80008fa:	682b      	ldr	r3, [r5, #0]
 80008fc:	f44f 7802 	mov.w	r8, #520	; 0x208
 8000900:	641a      	str	r2, [r3, #64]	; 0x40
 8000902:	f001 f971 	bl	8001be8 <HAL_GetTick>
 8000906:	fb08 f309 	mul.w	r3, r8, r9
 800090a:	4602      	mov	r2, r0
 800090c:	f04f 0800 	mov.w	r8, #0
 8000910:	f64f 79ff 	movw	r9, #65535	; 0xffff
 8000914:	f8df a264 	ldr.w	sl, [pc, #612]	; 8000b7c <rightmotor+0x30c>
 8000918:	9300      	str	r3, [sp, #0]
 800091a:	f10a 0b0f 	add.w	fp, sl, #15
 800091e:	9b00      	ldr	r3, [sp, #0]
 8000920:	4598      	cmp	r8, r3
 8000922:	d302      	bcc.n	800092a <rightmotor+0xba>
 8000924:	2200      	movs	r2, #0
 8000926:	682b      	ldr	r3, [r5, #0]
 8000928:	e09b      	b.n	8000a62 <rightmotor+0x1f2>
 800092a:	9201      	str	r2, [sp, #4]
 800092c:	f001 f95c 	bl	8001be8 <HAL_GetTick>
 8000930:	9a01      	ldr	r2, [sp, #4]
 8000932:	1a80      	subs	r0, r0, r2
 8000934:	2832      	cmp	r0, #50	; 0x32
 8000936:	d9f2      	bls.n	800091e <rightmotor+0xae>
 8000938:	6822      	ldr	r2, [r4, #0]
 800093a:	6a56      	ldr	r6, [r2, #36]	; 0x24
 800093c:	6812      	ldr	r2, [r2, #0]
 800093e:	06d2      	lsls	r2, r2, #27
 8000940:	d524      	bpl.n	800098c <rightmotor+0x11c>
 8000942:	42b7      	cmp	r7, r6
 8000944:	dd1e      	ble.n	8000984 <rightmotor+0x114>
 8000946:	1bbe      	subs	r6, r7, r6
 8000948:	4632      	mov	r2, r6
 800094a:	4651      	mov	r1, sl
 800094c:	a803      	add	r0, sp, #12
 800094e:	f004 fb49 	bl	8004fe4 <siprintf>
 8000952:	211e      	movs	r1, #30
 8000954:	2032      	movs	r0, #50	; 0x32
 8000956:	aa03      	add	r2, sp, #12
 8000958:	f000 fe3c 	bl	80015d4 <OLED_ShowString>
 800095c:	6822      	ldr	r2, [r4, #0]
 800095e:	4659      	mov	r1, fp
 8000960:	6812      	ldr	r2, [r2, #0]
 8000962:	a803      	add	r0, sp, #12
 8000964:	f3c2 1200 	ubfx	r2, r2, #4, #1
 8000968:	f004 fb3c 	bl	8004fe4 <siprintf>
 800096c:	211e      	movs	r1, #30
 800096e:	200a      	movs	r0, #10
 8000970:	aa03      	add	r2, sp, #12
 8000972:	f000 fe2f 	bl	80015d4 <OLED_ShowString>
 8000976:	6822      	ldr	r2, [r4, #0]
 8000978:	44b0      	add	r8, r6
 800097a:	6a57      	ldr	r7, [r2, #36]	; 0x24
 800097c:	f001 f934 	bl	8001be8 <HAL_GetTick>
 8000980:	4602      	mov	r2, r0
 8000982:	e7cc      	b.n	800091e <rightmotor+0xae>
 8000984:	eba9 0606 	sub.w	r6, r9, r6
 8000988:	443e      	add	r6, r7
 800098a:	e7dd      	b.n	8000948 <rightmotor+0xd8>
 800098c:	42b7      	cmp	r7, r6
 800098e:	da01      	bge.n	8000994 <rightmotor+0x124>
 8000990:	1bf6      	subs	r6, r6, r7
 8000992:	e7d9      	b.n	8000948 <rightmotor+0xd8>
 8000994:	eba9 0707 	sub.w	r7, r9, r7
 8000998:	e7f6      	b.n	8000988 <rightmotor+0x118>
 800099a:	214a      	movs	r1, #74	; 0x4a
 800099c:	2201      	movs	r2, #1
 800099e:	6823      	ldr	r3, [r4, #0]
 80009a0:	4f74      	ldr	r7, [pc, #464]	; (8000b74 <rightmotor+0x304>)
 80009a2:	f8d3 8024 	ldr.w	r8, [r3, #36]	; 0x24
 80009a6:	6833      	ldr	r3, [r6, #0]
 80009a8:	4871      	ldr	r0, [pc, #452]	; (8000b70 <rightmotor+0x300>)
 80009aa:	6419      	str	r1, [r3, #64]	; 0x40
 80009ac:	f44f 4100 	mov.w	r1, #32768	; 0x8000
 80009b0:	703a      	strb	r2, [r7, #0]
 80009b2:	f001 fc6d 	bl	8002290 <HAL_GPIO_WritePin>
 80009b6:	2200      	movs	r2, #0
 80009b8:	f44f 6100 	mov.w	r1, #2048	; 0x800
 80009bc:	486c      	ldr	r0, [pc, #432]	; (8000b70 <rightmotor+0x300>)
 80009be:	f001 fc67 	bl	8002290 <HAL_GPIO_WritePin>
 80009c2:	f44f 727a 	mov.w	r2, #1000	; 0x3e8
 80009c6:	682b      	ldr	r3, [r5, #0]
 80009c8:	f04f 0b00 	mov.w	fp, #0
 80009cc:	641a      	str	r2, [r3, #64]	; 0x40
 80009ce:	f001 f90b 	bl	8001be8 <HAL_GetTick>
 80009d2:	f64f 79ff 	movw	r9, #65535	; 0xffff
 80009d6:	4602      	mov	r2, r0
 80009d8:	f8df a1a0 	ldr.w	sl, [pc, #416]	; 8000b7c <rightmotor+0x30c>
 80009dc:	9700      	str	r7, [sp, #0]
 80009de:	f5bb 7fd0 	cmp.w	fp, #416	; 0x1a0
 80009e2:	d341      	bcc.n	8000a68 <rightmotor+0x1f8>
 80009e4:	2700      	movs	r7, #0
 80009e6:	225d      	movs	r2, #93	; 0x5d
 80009e8:	682b      	ldr	r3, [r5, #0]
 80009ea:	f44f 4100 	mov.w	r1, #32768	; 0x8000
 80009ee:	641f      	str	r7, [r3, #64]	; 0x40
 80009f0:	6833      	ldr	r3, [r6, #0]
 80009f2:	485f      	ldr	r0, [pc, #380]	; (8000b70 <rightmotor+0x300>)
 80009f4:	641a      	str	r2, [r3, #64]	; 0x40
 80009f6:	6823      	ldr	r3, [r4, #0]
 80009f8:	2201      	movs	r2, #1
 80009fa:	f8d3 8024 	ldr.w	r8, [r3, #36]	; 0x24
 80009fe:	f001 fc47 	bl	8002290 <HAL_GPIO_WritePin>
 8000a02:	463a      	mov	r2, r7
 8000a04:	f44f 6100 	mov.w	r1, #2048	; 0x800
 8000a08:	4859      	ldr	r0, [pc, #356]	; (8000b70 <rightmotor+0x300>)
 8000a0a:	f001 fc41 	bl	8002290 <HAL_GPIO_WritePin>
 8000a0e:	f44f 72c8 	mov.w	r2, #400	; 0x190
 8000a12:	682b      	ldr	r3, [r5, #0]
 8000a14:	46bb      	mov	fp, r7
 8000a16:	641a      	str	r2, [r3, #64]	; 0x40
 8000a18:	f001 f8e6 	bl	8001be8 <HAL_GetTick>
 8000a1c:	f64f 79ff 	movw	r9, #65535	; 0xffff
 8000a20:	4602      	mov	r2, r0
 8000a22:	f8df a158 	ldr.w	sl, [pc, #344]	; 8000b7c <rightmotor+0x30c>
 8000a26:	f5bb 7fc3 	cmp.w	fp, #390	; 0x186
 8000a2a:	d358      	bcc.n	8000ade <rightmotor+0x26e>
 8000a2c:	2700      	movs	r7, #0
 8000a2e:	9a00      	ldr	r2, [sp, #0]
 8000a30:	682b      	ldr	r3, [r5, #0]
 8000a32:	7812      	ldrb	r2, [r2, #0]
 8000a34:	2a00      	cmp	r2, #0
 8000a36:	f040 808d 	bne.w	8000b54 <rightmotor+0x2e4>
 8000a3a:	641a      	str	r2, [r3, #64]	; 0x40
 8000a3c:	20c8      	movs	r0, #200	; 0xc8
 8000a3e:	f002 fe4b 	bl	80036d8 <osDelay>
 8000a42:	225d      	movs	r2, #93	; 0x5d
 8000a44:	6833      	ldr	r3, [r6, #0]
 8000a46:	f44f 70fa 	mov.w	r0, #500	; 0x1f4
 8000a4a:	641a      	str	r2, [r3, #64]	; 0x40
 8000a4c:	f002 fe44 	bl	80036d8 <osDelay>
 8000a50:	223a      	movs	r2, #58	; 0x3a
 8000a52:	6833      	ldr	r3, [r6, #0]
 8000a54:	f44f 70fa 	mov.w	r0, #500	; 0x1f4
 8000a58:	641a      	str	r2, [r3, #64]	; 0x40
 8000a5a:	f002 fe3d 	bl	80036d8 <osDelay>
 8000a5e:	224c      	movs	r2, #76	; 0x4c
 8000a60:	6833      	ldr	r3, [r6, #0]
 8000a62:	641a      	str	r2, [r3, #64]	; 0x40
 8000a64:	2701      	movs	r7, #1
 8000a66:	e710      	b.n	800088a <rightmotor+0x1a>
 8000a68:	9201      	str	r2, [sp, #4]
 8000a6a:	f001 f8bd 	bl	8001be8 <HAL_GetTick>
 8000a6e:	9a01      	ldr	r2, [sp, #4]
 8000a70:	1a80      	subs	r0, r0, r2
 8000a72:	2832      	cmp	r0, #50	; 0x32
 8000a74:	d9b3      	bls.n	80009de <rightmotor+0x16e>
 8000a76:	6822      	ldr	r2, [r4, #0]
 8000a78:	6a57      	ldr	r7, [r2, #36]	; 0x24
 8000a7a:	6812      	ldr	r2, [r2, #0]
 8000a7c:	06d3      	lsls	r3, r2, #27
 8000a7e:	d526      	bpl.n	8000ace <rightmotor+0x25e>
 8000a80:	45b8      	cmp	r8, r7
 8000a82:	dd20      	ble.n	8000ac6 <rightmotor+0x256>
 8000a84:	eba8 0707 	sub.w	r7, r8, r7
 8000a88:	463a      	mov	r2, r7
 8000a8a:	4651      	mov	r1, sl
 8000a8c:	a803      	add	r0, sp, #12
 8000a8e:	f004 faa9 	bl	8004fe4 <siprintf>
 8000a92:	211e      	movs	r1, #30
 8000a94:	2032      	movs	r0, #50	; 0x32
 8000a96:	aa03      	add	r2, sp, #12
 8000a98:	f000 fd9c 	bl	80015d4 <OLED_ShowString>
 8000a9c:	6822      	ldr	r2, [r4, #0]
 8000a9e:	4936      	ldr	r1, [pc, #216]	; (8000b78 <rightmotor+0x308>)
 8000aa0:	6812      	ldr	r2, [r2, #0]
 8000aa2:	a803      	add	r0, sp, #12
 8000aa4:	f3c2 1200 	ubfx	r2, r2, #4, #1
 8000aa8:	f004 fa9c 	bl	8004fe4 <siprintf>
 8000aac:	211e      	movs	r1, #30
 8000aae:	200a      	movs	r0, #10
 8000ab0:	aa03      	add	r2, sp, #12
 8000ab2:	f000 fd8f 	bl	80015d4 <OLED_ShowString>
 8000ab6:	6822      	ldr	r2, [r4, #0]
 8000ab8:	44bb      	add	fp, r7
 8000aba:	f8d2 8024 	ldr.w	r8, [r2, #36]	; 0x24
 8000abe:	f001 f893 	bl	8001be8 <HAL_GetTick>
 8000ac2:	4602      	mov	r2, r0
 8000ac4:	e78b      	b.n	80009de <rightmotor+0x16e>
 8000ac6:	eba9 0707 	sub.w	r7, r9, r7
 8000aca:	4447      	add	r7, r8
 8000acc:	e7dc      	b.n	8000a88 <rightmotor+0x218>
 8000ace:	45b8      	cmp	r8, r7
 8000ad0:	da02      	bge.n	8000ad8 <rightmotor+0x268>
 8000ad2:	eba7 0708 	sub.w	r7, r7, r8
 8000ad6:	e7d7      	b.n	8000a88 <rightmotor+0x218>
 8000ad8:	eba9 0808 	sub.w	r8, r9, r8
 8000adc:	e7f5      	b.n	8000aca <rightmotor+0x25a>
 8000ade:	9201      	str	r2, [sp, #4]
 8000ae0:	f001 f882 	bl	8001be8 <HAL_GetTick>
 8000ae4:	9a01      	ldr	r2, [sp, #4]
 8000ae6:	1a80      	subs	r0, r0, r2
 8000ae8:	2832      	cmp	r0, #50	; 0x32
 8000aea:	d99c      	bls.n	8000a26 <rightmotor+0x1b6>
 8000aec:	6822      	ldr	r2, [r4, #0]
 8000aee:	6a57      	ldr	r7, [r2, #36]	; 0x24
 8000af0:	6812      	ldr	r2, [r2, #0]
 8000af2:	06d0      	lsls	r0, r2, #27
 8000af4:	d526      	bpl.n	8000b44 <rightmotor+0x2d4>
 8000af6:	45b8      	cmp	r8, r7
 8000af8:	dd20      	ble.n	8000b3c <rightmotor+0x2cc>
 8000afa:	eba8 0707 	sub.w	r7, r8, r7
 8000afe:	463a      	mov	r2, r7
 8000b00:	4651      	mov	r1, sl
 8000b02:	a803      	add	r0, sp, #12
 8000b04:	f004 fa6e 	bl	8004fe4 <siprintf>
 8000b08:	211e      	movs	r1, #30
 8000b0a:	2032      	movs	r0, #50	; 0x32
 8000b0c:	aa03      	add	r2, sp, #12
 8000b0e:	f000 fd61 	bl	80015d4 <OLED_ShowString>
 8000b12:	6822      	ldr	r2, [r4, #0]
 8000b14:	4918      	ldr	r1, [pc, #96]	; (8000b78 <rightmotor+0x308>)
 8000b16:	6812      	ldr	r2, [r2, #0]
 8000b18:	a803      	add	r0, sp, #12
 8000b1a:	f3c2 1200 	ubfx	r2, r2, #4, #1
 8000b1e:	f004 fa61 	bl	8004fe4 <siprintf>
 8000b22:	211e      	movs	r1, #30
 8000b24:	200a      	movs	r0, #10
 8000b26:	aa03      	add	r2, sp, #12
 8000b28:	f000 fd54 	bl	80015d4 <OLED_ShowString>
 8000b2c:	6822      	ldr	r2, [r4, #0]
 8000b2e:	44bb      	add	fp, r7
 8000b30:	f8d2 8024 	ldr.w	r8, [r2, #36]	; 0x24
 8000b34:	f001 f858 	bl	8001be8 <HAL_GetTick>
 8000b38:	4602      	mov	r2, r0
 8000b3a:	e774      	b.n	8000a26 <rightmotor+0x1b6>
 8000b3c:	eba9 0707 	sub.w	r7, r9, r7
 8000b40:	4447      	add	r7, r8
 8000b42:	e7dc      	b.n	8000afe <rightmotor+0x28e>
 8000b44:	45b8      	cmp	r8, r7
 8000b46:	da02      	bge.n	8000b4e <rightmotor+0x2de>
 8000b48:	eba7 0708 	sub.w	r7, r7, r8
 8000b4c:	e7d7      	b.n	8000afe <rightmotor+0x28e>
 8000b4e:	eba9 0808 	sub.w	r8, r9, r8
 8000b52:	e7f5      	b.n	8000b40 <rightmotor+0x2d0>
 8000b54:	641f      	str	r7, [r3, #64]	; 0x40
 8000b56:	2064      	movs	r0, #100	; 0x64
 8000b58:	f002 fdbe 	bl	80036d8 <osDelay>
 8000b5c:	e767      	b.n	8000a2e <rightmotor+0x1be>
 8000b5e:	bf00      	nop
 8000b60:	200019ac 	.word	0x200019ac
 8000b64:	20001a80 	.word	0x20001a80
 8000b68:	20001be5 	.word	0x20001be5
 8000b6c:	20001b48 	.word	0x20001b48
 8000b70:	40010c00 	.word	0x40010c00
 8000b74:	20000090 	.word	0x20000090
 8000b78:	080059ab 	.word	0x080059ab
 8000b7c:	0800599c 	.word	0x0800599c
 8000b80:	224b      	movs	r2, #75	; 0x4b
 8000b82:	6823      	ldr	r3, [r4, #0]
 8000b84:	f44f 4100 	mov.w	r1, #32768	; 0x8000
 8000b88:	f8d3 8024 	ldr.w	r8, [r3, #36]	; 0x24
 8000b8c:	6833      	ldr	r3, [r6, #0]
 8000b8e:	48ba      	ldr	r0, [pc, #744]	; (8000e78 <rightmotor+0x608>)
 8000b90:	641a      	str	r2, [r3, #64]	; 0x40
 8000b92:	2201      	movs	r2, #1
 8000b94:	f001 fb7c 	bl	8002290 <HAL_GPIO_WritePin>
 8000b98:	2200      	movs	r2, #0
 8000b9a:	f44f 6100 	mov.w	r1, #2048	; 0x800
 8000b9e:	48b6      	ldr	r0, [pc, #728]	; (8000e78 <rightmotor+0x608>)
 8000ba0:	f001 fb76 	bl	8002290 <HAL_GPIO_WritePin>
 8000ba4:	f44f 727a 	mov.w	r2, #1000	; 0x3e8
 8000ba8:	682b      	ldr	r3, [r5, #0]
 8000baa:	f04f 0b00 	mov.w	fp, #0
 8000bae:	641a      	str	r2, [r3, #64]	; 0x40
 8000bb0:	f001 f81a 	bl	8001be8 <HAL_GetTick>
 8000bb4:	f64f 79ff 	movw	r9, #65535	; 0xffff
 8000bb8:	4602      	mov	r2, r0
 8000bba:	f8df a2c4 	ldr.w	sl, [pc, #708]	; 8000e80 <rightmotor+0x610>
 8000bbe:	f5bb 7fd0 	cmp.w	fp, #416	; 0x1a0
 8000bc2:	d33b      	bcc.n	8000c3c <rightmotor+0x3cc>
 8000bc4:	2700      	movs	r7, #0
 8000bc6:	223a      	movs	r2, #58	; 0x3a
 8000bc8:	682b      	ldr	r3, [r5, #0]
 8000bca:	f44f 4100 	mov.w	r1, #32768	; 0x8000
 8000bce:	641f      	str	r7, [r3, #64]	; 0x40
 8000bd0:	6833      	ldr	r3, [r6, #0]
 8000bd2:	48a9      	ldr	r0, [pc, #676]	; (8000e78 <rightmotor+0x608>)
 8000bd4:	641a      	str	r2, [r3, #64]	; 0x40
 8000bd6:	6823      	ldr	r3, [r4, #0]
 8000bd8:	2201      	movs	r2, #1
 8000bda:	f8d3 8024 	ldr.w	r8, [r3, #36]	; 0x24
 8000bde:	f001 fb57 	bl	8002290 <HAL_GPIO_WritePin>
 8000be2:	463a      	mov	r2, r7
 8000be4:	f44f 6100 	mov.w	r1, #2048	; 0x800
 8000be8:	48a3      	ldr	r0, [pc, #652]	; (8000e78 <rightmotor+0x608>)
 8000bea:	f001 fb51 	bl	8002290 <HAL_GPIO_WritePin>
 8000bee:	f240 52dc 	movw	r2, #1500	; 0x5dc
 8000bf2:	682b      	ldr	r3, [r5, #0]
 8000bf4:	46ba      	mov	sl, r7
 8000bf6:	641a      	str	r2, [r3, #64]	; 0x40
 8000bf8:	f000 fff6 	bl	8001be8 <HAL_GetTick>
 8000bfc:	4602      	mov	r2, r0
 8000bfe:	f8df 9280 	ldr.w	r9, [pc, #640]	; 8000e80 <rightmotor+0x610>
 8000c02:	f109 0b0f 	add.w	fp, r9, #15
 8000c06:	f640 4397 	movw	r3, #3223	; 0xc97
 8000c0a:	459a      	cmp	sl, r3
 8000c0c:	d951      	bls.n	8000cb2 <rightmotor+0x442>
 8000c0e:	2200      	movs	r2, #0
 8000c10:	682b      	ldr	r3, [r5, #0]
 8000c12:	20c8      	movs	r0, #200	; 0xc8
 8000c14:	641a      	str	r2, [r3, #64]	; 0x40
 8000c16:	f002 fd5f 	bl	80036d8 <osDelay>
 8000c1a:	225d      	movs	r2, #93	; 0x5d
 8000c1c:	6833      	ldr	r3, [r6, #0]
 8000c1e:	f44f 70fa 	mov.w	r0, #500	; 0x1f4
 8000c22:	641a      	str	r2, [r3, #64]	; 0x40
 8000c24:	f002 fd58 	bl	80036d8 <osDelay>
 8000c28:	223a      	movs	r2, #58	; 0x3a
 8000c2a:	6833      	ldr	r3, [r6, #0]
 8000c2c:	f44f 70fa 	mov.w	r0, #500	; 0x1f4
 8000c30:	641a      	str	r2, [r3, #64]	; 0x40
 8000c32:	f002 fd51 	bl	80036d8 <osDelay>
 8000c36:	224d      	movs	r2, #77	; 0x4d
 8000c38:	6833      	ldr	r3, [r6, #0]
 8000c3a:	e712      	b.n	8000a62 <rightmotor+0x1f2>
 8000c3c:	9200      	str	r2, [sp, #0]
 8000c3e:	f000 ffd3 	bl	8001be8 <HAL_GetTick>
 8000c42:	9a00      	ldr	r2, [sp, #0]
 8000c44:	1a80      	subs	r0, r0, r2
 8000c46:	2832      	cmp	r0, #50	; 0x32
 8000c48:	d9b9      	bls.n	8000bbe <rightmotor+0x34e>
 8000c4a:	6822      	ldr	r2, [r4, #0]
 8000c4c:	6a57      	ldr	r7, [r2, #36]	; 0x24
 8000c4e:	6812      	ldr	r2, [r2, #0]
 8000c50:	06d1      	lsls	r1, r2, #27
 8000c52:	d526      	bpl.n	8000ca2 <rightmotor+0x432>
 8000c54:	45b8      	cmp	r8, r7
 8000c56:	dd20      	ble.n	8000c9a <rightmotor+0x42a>
 8000c58:	eba8 0707 	sub.w	r7, r8, r7
 8000c5c:	463a      	mov	r2, r7
 8000c5e:	4651      	mov	r1, sl
 8000c60:	a803      	add	r0, sp, #12
 8000c62:	f004 f9bf 	bl	8004fe4 <siprintf>
 8000c66:	211e      	movs	r1, #30
 8000c68:	2032      	movs	r0, #50	; 0x32
 8000c6a:	aa03      	add	r2, sp, #12
 8000c6c:	f000 fcb2 	bl	80015d4 <OLED_ShowString>
 8000c70:	6822      	ldr	r2, [r4, #0]
 8000c72:	4982      	ldr	r1, [pc, #520]	; (8000e7c <rightmotor+0x60c>)
 8000c74:	6812      	ldr	r2, [r2, #0]
 8000c76:	a803      	add	r0, sp, #12
 8000c78:	f3c2 1200 	ubfx	r2, r2, #4, #1
 8000c7c:	f004 f9b2 	bl	8004fe4 <siprintf>
 8000c80:	211e      	movs	r1, #30
 8000c82:	200a      	movs	r0, #10
 8000c84:	aa03      	add	r2, sp, #12
 8000c86:	f000 fca5 	bl	80015d4 <OLED_ShowString>
 8000c8a:	6822      	ldr	r2, [r4, #0]
 8000c8c:	44bb      	add	fp, r7
 8000c8e:	f8d2 8024 	ldr.w	r8, [r2, #36]	; 0x24
 8000c92:	f000 ffa9 	bl	8001be8 <HAL_GetTick>
 8000c96:	4602      	mov	r2, r0
 8000c98:	e791      	b.n	8000bbe <rightmotor+0x34e>
 8000c9a:	eba9 0707 	sub.w	r7, r9, r7
 8000c9e:	4447      	add	r7, r8
 8000ca0:	e7dc      	b.n	8000c5c <rightmotor+0x3ec>
 8000ca2:	45b8      	cmp	r8, r7
 8000ca4:	da02      	bge.n	8000cac <rightmotor+0x43c>
 8000ca6:	eba7 0708 	sub.w	r7, r7, r8
 8000caa:	e7d7      	b.n	8000c5c <rightmotor+0x3ec>
 8000cac:	eba9 0808 	sub.w	r8, r9, r8
 8000cb0:	e7f5      	b.n	8000c9e <rightmotor+0x42e>
 8000cb2:	9200      	str	r2, [sp, #0]
 8000cb4:	f000 ff98 	bl	8001be8 <HAL_GetTick>
 8000cb8:	9a00      	ldr	r2, [sp, #0]
 8000cba:	1a80      	subs	r0, r0, r2
 8000cbc:	2832      	cmp	r0, #50	; 0x32
 8000cbe:	d9a2      	bls.n	8000c06 <rightmotor+0x396>
 8000cc0:	6822      	ldr	r2, [r4, #0]
 8000cc2:	6a57      	ldr	r7, [r2, #36]	; 0x24
 8000cc4:	6812      	ldr	r2, [r2, #0]
 8000cc6:	06d2      	lsls	r2, r2, #27
 8000cc8:	d527      	bpl.n	8000d1a <rightmotor+0x4aa>
 8000cca:	45b8      	cmp	r8, r7
 8000ccc:	dd20      	ble.n	8000d10 <rightmotor+0x4a0>
 8000cce:	eba8 0707 	sub.w	r7, r8, r7
 8000cd2:	463a      	mov	r2, r7
 8000cd4:	4649      	mov	r1, r9
 8000cd6:	a803      	add	r0, sp, #12
 8000cd8:	f004 f984 	bl	8004fe4 <siprintf>
 8000cdc:	211e      	movs	r1, #30
 8000cde:	2032      	movs	r0, #50	; 0x32
 8000ce0:	aa03      	add	r2, sp, #12
 8000ce2:	f000 fc77 	bl	80015d4 <OLED_ShowString>
 8000ce6:	6822      	ldr	r2, [r4, #0]
 8000ce8:	4659      	mov	r1, fp
 8000cea:	6812      	ldr	r2, [r2, #0]
 8000cec:	a803      	add	r0, sp, #12
 8000cee:	f3c2 1200 	ubfx	r2, r2, #4, #1
 8000cf2:	f004 f977 	bl	8004fe4 <siprintf>
 8000cf6:	211e      	movs	r1, #30
 8000cf8:	200a      	movs	r0, #10
 8000cfa:	aa03      	add	r2, sp, #12
 8000cfc:	f000 fc6a 	bl	80015d4 <OLED_ShowString>
 8000d00:	6822      	ldr	r2, [r4, #0]
 8000d02:	44ba      	add	sl, r7
 8000d04:	f8d2 8024 	ldr.w	r8, [r2, #36]	; 0x24
 8000d08:	f000 ff6e 	bl	8001be8 <HAL_GetTick>
 8000d0c:	4602      	mov	r2, r0
 8000d0e:	e77a      	b.n	8000c06 <rightmotor+0x396>
 8000d10:	f5c7 477f 	rsb	r7, r7, #65280	; 0xff00
 8000d14:	37ff      	adds	r7, #255	; 0xff
 8000d16:	4447      	add	r7, r8
 8000d18:	e7db      	b.n	8000cd2 <rightmotor+0x462>
 8000d1a:	45b8      	cmp	r8, r7
 8000d1c:	da02      	bge.n	8000d24 <rightmotor+0x4b4>
 8000d1e:	eba7 0708 	sub.w	r7, r7, r8
 8000d22:	e7d6      	b.n	8000cd2 <rightmotor+0x462>
 8000d24:	f5c8 487f 	rsb	r8, r8, #65280	; 0xff00
 8000d28:	f108 08ff 	add.w	r8, r8, #255	; 0xff
 8000d2c:	e7f3      	b.n	8000d16 <rightmotor+0x4a6>
 8000d2e:	224a      	movs	r2, #74	; 0x4a
 8000d30:	6823      	ldr	r3, [r4, #0]
 8000d32:	f44f 4100 	mov.w	r1, #32768	; 0x8000
 8000d36:	6a5f      	ldr	r7, [r3, #36]	; 0x24
 8000d38:	6833      	ldr	r3, [r6, #0]
 8000d3a:	484f      	ldr	r0, [pc, #316]	; (8000e78 <rightmotor+0x608>)
 8000d3c:	641a      	str	r2, [r3, #64]	; 0x40
 8000d3e:	2200      	movs	r2, #0
 8000d40:	f001 faa6 	bl	8002290 <HAL_GPIO_WritePin>
 8000d44:	2201      	movs	r2, #1
 8000d46:	f44f 6100 	mov.w	r1, #2048	; 0x800
 8000d4a:	484b      	ldr	r0, [pc, #300]	; (8000e78 <rightmotor+0x608>)
 8000d4c:	f001 faa0 	bl	8002290 <HAL_GPIO_WritePin>
 8000d50:	f44f 6296 	mov.w	r2, #1200	; 0x4b0
 8000d54:	682b      	ldr	r3, [r5, #0]
 8000d56:	f44f 7802 	mov.w	r8, #520	; 0x208
 8000d5a:	641a      	str	r2, [r3, #64]	; 0x40
 8000d5c:	f000 ff44 	bl	8001be8 <HAL_GetTick>
 8000d60:	fb08 f309 	mul.w	r3, r8, r9
 8000d64:	4602      	mov	r2, r0
 8000d66:	f04f 0800 	mov.w	r8, #0
 8000d6a:	f64f 79ff 	movw	r9, #65535	; 0xffff
 8000d6e:	f8df a110 	ldr.w	sl, [pc, #272]	; 8000e80 <rightmotor+0x610>
 8000d72:	9300      	str	r3, [sp, #0]
 8000d74:	f10a 0b0f 	add.w	fp, sl, #15
 8000d78:	9b00      	ldr	r3, [sp, #0]
 8000d7a:	4543      	cmp	r3, r8
 8000d7c:	f67f add2 	bls.w	8000924 <rightmotor+0xb4>
 8000d80:	9201      	str	r2, [sp, #4]
 8000d82:	f000 ff31 	bl	8001be8 <HAL_GetTick>
 8000d86:	9a01      	ldr	r2, [sp, #4]
 8000d88:	1a80      	subs	r0, r0, r2
 8000d8a:	2832      	cmp	r0, #50	; 0x32
 8000d8c:	d9f4      	bls.n	8000d78 <rightmotor+0x508>
 8000d8e:	6822      	ldr	r2, [r4, #0]
 8000d90:	6a56      	ldr	r6, [r2, #36]	; 0x24
 8000d92:	6812      	ldr	r2, [r2, #0]
 8000d94:	06d3      	lsls	r3, r2, #27
 8000d96:	d524      	bpl.n	8000de2 <rightmotor+0x572>
 8000d98:	42b7      	cmp	r7, r6
 8000d9a:	dd1e      	ble.n	8000dda <rightmotor+0x56a>
 8000d9c:	1bbe      	subs	r6, r7, r6
 8000d9e:	4632      	mov	r2, r6
 8000da0:	4651      	mov	r1, sl
 8000da2:	a803      	add	r0, sp, #12
 8000da4:	f004 f91e 	bl	8004fe4 <siprintf>
 8000da8:	211e      	movs	r1, #30
 8000daa:	2032      	movs	r0, #50	; 0x32
 8000dac:	aa03      	add	r2, sp, #12
 8000dae:	f000 fc11 	bl	80015d4 <OLED_ShowString>
 8000db2:	6822      	ldr	r2, [r4, #0]
 8000db4:	4659      	mov	r1, fp
 8000db6:	6812      	ldr	r2, [r2, #0]
 8000db8:	a803      	add	r0, sp, #12
 8000dba:	f3c2 1200 	ubfx	r2, r2, #4, #1
 8000dbe:	f004 f911 	bl	8004fe4 <siprintf>
 8000dc2:	211e      	movs	r1, #30
 8000dc4:	200a      	movs	r0, #10
 8000dc6:	aa03      	add	r2, sp, #12
 8000dc8:	f000 fc04 	bl	80015d4 <OLED_ShowString>
 8000dcc:	6822      	ldr	r2, [r4, #0]
 8000dce:	44b0      	add	r8, r6
 8000dd0:	6a57      	ldr	r7, [r2, #36]	; 0x24
 8000dd2:	f000 ff09 	bl	8001be8 <HAL_GetTick>
 8000dd6:	4602      	mov	r2, r0
 8000dd8:	e7ce      	b.n	8000d78 <rightmotor+0x508>
 8000dda:	eba9 0606 	sub.w	r6, r9, r6
 8000dde:	443e      	add	r6, r7
 8000de0:	e7dd      	b.n	8000d9e <rightmotor+0x52e>
 8000de2:	42b7      	cmp	r7, r6
 8000de4:	da01      	bge.n	8000dea <rightmotor+0x57a>
 8000de6:	1bf6      	subs	r6, r6, r7
 8000de8:	e7d9      	b.n	8000d9e <rightmotor+0x52e>
 8000dea:	eba9 0707 	sub.w	r7, r9, r7
 8000dee:	e7f6      	b.n	8000dde <rightmotor+0x56e>
 8000df0:	225d      	movs	r2, #93	; 0x5d
 8000df2:	6833      	ldr	r3, [r6, #0]
 8000df4:	2064      	movs	r0, #100	; 0x64
 8000df6:	641a      	str	r2, [r3, #64]	; 0x40
 8000df8:	f002 fc6e 	bl	80036d8 <osDelay>
 8000dfc:	2200      	movs	r2, #0
 8000dfe:	f44f 4100 	mov.w	r1, #32768	; 0x8000
 8000e02:	481d      	ldr	r0, [pc, #116]	; (8000e78 <rightmotor+0x608>)
 8000e04:	f001 fa44 	bl	8002290 <HAL_GPIO_WritePin>
 8000e08:	2201      	movs	r2, #1
 8000e0a:	f44f 6100 	mov.w	r1, #2048	; 0x800
 8000e0e:	481a      	ldr	r0, [pc, #104]	; (8000e78 <rightmotor+0x608>)
 8000e10:	f001 fa3e 	bl	8002290 <HAL_GPIO_WritePin>
 8000e14:	f44f 72c8 	mov.w	r2, #400	; 0x190
 8000e18:	202b      	movs	r0, #43	; 0x2b
 8000e1a:	682b      	ldr	r3, [r5, #0]
 8000e1c:	fb00 f009 	mul.w	r0, r0, r9
 8000e20:	641a      	str	r2, [r3, #64]	; 0x40
 8000e22:	f002 fc59 	bl	80036d8 <osDelay>
 8000e26:	224a      	movs	r2, #74	; 0x4a
 8000e28:	6833      	ldr	r3, [r6, #0]
 8000e2a:	e61a      	b.n	8000a62 <rightmotor+0x1f2>
 8000e2c:	223a      	movs	r2, #58	; 0x3a
 8000e2e:	6833      	ldr	r3, [r6, #0]
 8000e30:	2064      	movs	r0, #100	; 0x64
 8000e32:	641a      	str	r2, [r3, #64]	; 0x40
 8000e34:	f002 fc50 	bl	80036d8 <osDelay>
 8000e38:	2200      	movs	r2, #0
 8000e3a:	f44f 4100 	mov.w	r1, #32768	; 0x8000
 8000e3e:	480e      	ldr	r0, [pc, #56]	; (8000e78 <rightmotor+0x608>)
 8000e40:	f001 fa26 	bl	8002290 <HAL_GPIO_WritePin>
 8000e44:	f44f 6100 	mov.w	r1, #2048	; 0x800
 8000e48:	2201      	movs	r2, #1
 8000e4a:	480b      	ldr	r0, [pc, #44]	; (8000e78 <rightmotor+0x608>)
 8000e4c:	f001 fa20 	bl	8002290 <HAL_GPIO_WritePin>
 8000e50:	f240 52dc 	movw	r2, #1500	; 0x5dc
 8000e54:	2026      	movs	r0, #38	; 0x26
 8000e56:	682b      	ldr	r3, [r5, #0]
 8000e58:	fb00 f009 	mul.w	r0, r0, r9
 8000e5c:	641a      	str	r2, [r3, #64]	; 0x40
 8000e5e:	f002 fc3b 	bl	80036d8 <osDelay>
 8000e62:	2255      	movs	r2, #85	; 0x55
 8000e64:	6833      	ldr	r3, [r6, #0]
 8000e66:	2064      	movs	r0, #100	; 0x64
 8000e68:	641a      	str	r2, [r3, #64]	; 0x40
 8000e6a:	2200      	movs	r2, #0
 8000e6c:	682b      	ldr	r3, [r5, #0]
 8000e6e:	641a      	str	r2, [r3, #64]	; 0x40
 8000e70:	f002 fc32 	bl	80036d8 <osDelay>
 8000e74:	e5f6      	b.n	8000a64 <rightmotor+0x1f4>
 8000e76:	bf00      	nop
 8000e78:	40010c00 	.word	0x40010c00
 8000e7c:	080059ab 	.word	0x080059ab
 8000e80:	0800599c 	.word	0x0800599c
 8000e84:	682b      	ldr	r3, [r5, #0]
 8000e86:	641e      	str	r6, [r3, #64]	; 0x40
 8000e88:	2f00      	cmp	r7, #0
 8000e8a:	f43f acfe 	beq.w	800088a <rightmotor+0x1a>
 8000e8e:	224d      	movs	r2, #77	; 0x4d
 8000e90:	4b0b      	ldr	r3, [pc, #44]	; (8000ec0 <rightmotor+0x650>)
 8000e92:	490c      	ldr	r1, [pc, #48]	; (8000ec4 <rightmotor+0x654>)
 8000e94:	681b      	ldr	r3, [r3, #0]
 8000e96:	480c      	ldr	r0, [pc, #48]	; (8000ec8 <rightmotor+0x658>)
 8000e98:	641a      	str	r2, [r3, #64]	; 0x40
 8000e9a:	4a0c      	ldr	r2, [pc, #48]	; (8000ecc <rightmotor+0x65c>)
 8000e9c:	f004 f8a2 	bl	8004fe4 <siprintf>
 8000ea0:	f64f 73ff 	movw	r3, #65535	; 0xffff
 8000ea4:	2205      	movs	r2, #5
 8000ea6:	4908      	ldr	r1, [pc, #32]	; (8000ec8 <rightmotor+0x658>)
 8000ea8:	4809      	ldr	r0, [pc, #36]	; (8000ed0 <rightmotor+0x660>)
 8000eaa:	f002 f999 	bl	80031e0 <HAL_UART_Transmit>
 8000eae:	4637      	mov	r7, r6
 8000eb0:	e4eb      	b.n	800088a <rightmotor+0x1a>
 8000eb2:	224c      	movs	r2, #76	; 0x4c
 8000eb4:	6833      	ldr	r3, [r6, #0]
 8000eb6:	641a      	str	r2, [r3, #64]	; 0x40
 8000eb8:	2200      	movs	r2, #0
 8000eba:	682b      	ldr	r3, [r5, #0]
 8000ebc:	641a      	str	r2, [r3, #64]	; 0x40
 8000ebe:	e4e4      	b.n	800088a <rightmotor+0x1a>
 8000ec0:	20001b48 	.word	0x20001b48
 8000ec4:	08005998 	.word	0x08005998
 8000ec8:	20001be0 	.word	0x20001be0
 8000ecc:	080059b9 	.word	0x080059b9
 8000ed0:	20001a3c 	.word	0x20001a3c

08000ed4 <SystemClock_Config>:
 8000ed4:	b510      	push	{r4, lr}
 8000ed6:	b096      	sub	sp, #88	; 0x58
 8000ed8:	2224      	movs	r2, #36	; 0x24
 8000eda:	2100      	movs	r1, #0
 8000edc:	a80d      	add	r0, sp, #52	; 0x34
 8000ede:	f004 f879 	bl	8004fd4 <memset>
 8000ee2:	2214      	movs	r2, #20
 8000ee4:	2100      	movs	r1, #0
 8000ee6:	a801      	add	r0, sp, #4
 8000ee8:	f004 f874 	bl	8004fd4 <memset>
 8000eec:	2218      	movs	r2, #24
 8000eee:	2100      	movs	r1, #0
 8000ef0:	eb0d 0002 	add.w	r0, sp, r2
 8000ef4:	f004 f86e 	bl	8004fd4 <memset>
 8000ef8:	2402      	movs	r4, #2
 8000efa:	2201      	movs	r2, #1
 8000efc:	2310      	movs	r3, #16
 8000efe:	a80c      	add	r0, sp, #48	; 0x30
 8000f00:	e9cd 2310 	strd	r2, r3, [sp, #64]	; 0x40
 8000f04:	940c      	str	r4, [sp, #48]	; 0x30
 8000f06:	f001 f9dd 	bl	80022c4 <HAL_RCC_OscConfig>
 8000f0a:	4601      	mov	r1, r0
 8000f0c:	b108      	cbz	r0, 8000f12 <SystemClock_Config+0x3e>
 8000f0e:	b672      	cpsid	i
 8000f10:	e7fe      	b.n	8000f10 <SystemClock_Config+0x3c>
 8000f12:	230f      	movs	r3, #15
 8000f14:	e9cd 0003 	strd	r0, r0, [sp, #12]
 8000f18:	e9cd 3001 	strd	r3, r0, [sp, #4]
 8000f1c:	9005      	str	r0, [sp, #20]
 8000f1e:	a801      	add	r0, sp, #4
 8000f20:	f001 fba6 	bl	8002670 <HAL_RCC_ClockConfig>
 8000f24:	b108      	cbz	r0, 8000f2a <SystemClock_Config+0x56>
 8000f26:	b672      	cpsid	i
 8000f28:	e7fe      	b.n	8000f28 <SystemClock_Config+0x54>
 8000f2a:	9008      	str	r0, [sp, #32]
 8000f2c:	a806      	add	r0, sp, #24
 8000f2e:	9406      	str	r4, [sp, #24]
 8000f30:	f001 fc5a 	bl	80027e8 <HAL_RCCEx_PeriphCLKConfig>
 8000f34:	b108      	cbz	r0, 8000f3a <SystemClock_Config+0x66>
 8000f36:	b672      	cpsid	i
 8000f38:	e7fe      	b.n	8000f38 <SystemClock_Config+0x64>
 8000f3a:	b016      	add	sp, #88	; 0x58
 8000f3c:	bd10      	pop	{r4, pc}
	...

08000f40 <main>:
 8000f40:	b580      	push	{r7, lr}
 8000f42:	b09a      	sub	sp, #104	; 0x68
 8000f44:	f000 fe32 	bl	8001bac <HAL_Init>
 8000f48:	f7ff ffc4 	bl	8000ed4 <SystemClock_Config>
 8000f4c:	2210      	movs	r2, #16
 8000f4e:	2100      	movs	r1, #0
 8000f50:	a811      	add	r0, sp, #68	; 0x44
 8000f52:	f004 f83f 	bl	8004fd4 <memset>
 8000f56:	4baf      	ldr	r3, [pc, #700]	; (8001214 <main+0x2d4>)
 8000f58:	f44f 51af 	mov.w	r1, #5600	; 0x15e0
 8000f5c:	699a      	ldr	r2, [r3, #24]
 8000f5e:	48ae      	ldr	r0, [pc, #696]	; (8001218 <main+0x2d8>)
 8000f60:	f042 0240 	orr.w	r2, r2, #64	; 0x40
 8000f64:	619a      	str	r2, [r3, #24]
 8000f66:	699a      	ldr	r2, [r3, #24]
 8000f68:	2601      	movs	r6, #1
 8000f6a:	f002 0240 	and.w	r2, r2, #64	; 0x40
 8000f6e:	9200      	str	r2, [sp, #0]
 8000f70:	9a00      	ldr	r2, [sp, #0]
 8000f72:	699a      	ldr	r2, [r3, #24]
 8000f74:	2500      	movs	r5, #0
 8000f76:	f042 0210 	orr.w	r2, r2, #16
 8000f7a:	619a      	str	r2, [r3, #24]
 8000f7c:	699a      	ldr	r2, [r3, #24]
 8000f7e:	2403      	movs	r4, #3
 8000f80:	f002 0210 	and.w	r2, r2, #16
 8000f84:	9201      	str	r2, [sp, #4]
 8000f86:	9a01      	ldr	r2, [sp, #4]
 8000f88:	699a      	ldr	r2, [r3, #24]
 8000f8a:	f04f 0820 	mov.w	r8, #32
 8000f8e:	f042 0204 	orr.w	r2, r2, #4
 8000f92:	619a      	str	r2, [r3, #24]
 8000f94:	699a      	ldr	r2, [r3, #24]
 8000f96:	f44f 5780 	mov.w	r7, #4096	; 0x1000
 8000f9a:	f002 0204 	and.w	r2, r2, #4
 8000f9e:	9202      	str	r2, [sp, #8]
 8000fa0:	9a02      	ldr	r2, [sp, #8]
 8000fa2:	699a      	ldr	r2, [r3, #24]
 8000fa4:	f042 0208 	orr.w	r2, r2, #8
 8000fa8:	619a      	str	r2, [r3, #24]
 8000faa:	699b      	ldr	r3, [r3, #24]
 8000fac:	2200      	movs	r2, #0
 8000fae:	f003 0308 	and.w	r3, r3, #8
 8000fb2:	9303      	str	r3, [sp, #12]
 8000fb4:	9b03      	ldr	r3, [sp, #12]
 8000fb6:	f001 f96b 	bl	8002290 <HAL_GPIO_WritePin>
 8000fba:	2200      	movs	r2, #0
 8000fbc:	213c      	movs	r1, #60	; 0x3c
 8000fbe:	4897      	ldr	r0, [pc, #604]	; (800121c <main+0x2dc>)
 8000fc0:	f001 f966 	bl	8002290 <HAL_GPIO_WritePin>
 8000fc4:	2200      	movs	r2, #0
 8000fc6:	2120      	movs	r1, #32
 8000fc8:	4895      	ldr	r0, [pc, #596]	; (8001220 <main+0x2e0>)
 8000fca:	f001 f961 	bl	8002290 <HAL_GPIO_WritePin>
 8000fce:	2200      	movs	r2, #0
 8000fd0:	f44f 4108 	mov.w	r1, #34816	; 0x8800
 8000fd4:	4893      	ldr	r0, [pc, #588]	; (8001224 <main+0x2e4>)
 8000fd6:	f001 f95b 	bl	8002290 <HAL_GPIO_WritePin>
 8000fda:	f44f 63bc 	mov.w	r3, #1504	; 0x5e0
 8000fde:	e9cd 3611 	strd	r3, r6, [sp, #68]	; 0x44
 8000fe2:	2302      	movs	r3, #2
 8000fe4:	488c      	ldr	r0, [pc, #560]	; (8001218 <main+0x2d8>)
 8000fe6:	a911      	add	r1, sp, #68	; 0x44
 8000fe8:	e9cd 5313 	strd	r5, r3, [sp, #76]	; 0x4c
 8000fec:	f001 f866 	bl	80020bc <HAL_GPIO_Init>
 8000ff0:	233c      	movs	r3, #60	; 0x3c
 8000ff2:	488a      	ldr	r0, [pc, #552]	; (800121c <main+0x2dc>)
 8000ff4:	a911      	add	r1, sp, #68	; 0x44
 8000ff6:	e9cd 3611 	strd	r3, r6, [sp, #68]	; 0x44
 8000ffa:	9414      	str	r4, [sp, #80]	; 0x50
 8000ffc:	9513      	str	r5, [sp, #76]	; 0x4c
 8000ffe:	f001 f85d 	bl	80020bc <HAL_GPIO_Init>
 8001002:	4887      	ldr	r0, [pc, #540]	; (8001220 <main+0x2e0>)
 8001004:	a911      	add	r1, sp, #68	; 0x44
 8001006:	e9cd 5413 	strd	r5, r4, [sp, #76]	; 0x4c
 800100a:	e9cd 8611 	strd	r8, r6, [sp, #68]	; 0x44
 800100e:	f001 f855 	bl	80020bc <HAL_GPIO_Init>
 8001012:	4881      	ldr	r0, [pc, #516]	; (8001218 <main+0x2d8>)
 8001014:	a911      	add	r1, sp, #68	; 0x44
 8001016:	e9cd 5413 	strd	r5, r4, [sp, #76]	; 0x4c
 800101a:	e9cd 7611 	strd	r7, r6, [sp, #68]	; 0x44
 800101e:	f001 f84d 	bl	80020bc <HAL_GPIO_Init>
 8001022:	f44f 4308 	mov.w	r3, #34816	; 0x8800
 8001026:	487f      	ldr	r0, [pc, #508]	; (8001224 <main+0x2e4>)
 8001028:	a911      	add	r1, sp, #68	; 0x44
 800102a:	e9cd 3611 	strd	r3, r6, [sp, #68]	; 0x44
 800102e:	e9cd 5413 	strd	r5, r4, [sp, #76]	; 0x4c
 8001032:	f001 f843 	bl	80020bc <HAL_GPIO_Init>
 8001036:	2210      	movs	r2, #16
 8001038:	4629      	mov	r1, r5
 800103a:	a806      	add	r0, sp, #24
 800103c:	f003 ffca 	bl	8004fd4 <memset>
 8001040:	221c      	movs	r2, #28
 8001042:	4629      	mov	r1, r5
 8001044:	a80a      	add	r0, sp, #40	; 0x28
 8001046:	e9cd 5504 	strd	r5, r5, [sp, #16]
 800104a:	f003 ffc3 	bl	8004fd4 <memset>
 800104e:	4642      	mov	r2, r8
 8001050:	4629      	mov	r1, r5
 8001052:	a811      	add	r0, sp, #68	; 0x44
 8001054:	f003 ffbe 	bl	8004fd4 <memset>
 8001058:	4c73      	ldr	r4, [pc, #460]	; (8001228 <main+0x2e8>)
 800105a:	4b74      	ldr	r3, [pc, #464]	; (800122c <main+0x2ec>)
 800105c:	4620      	mov	r0, r4
 800105e:	e9c4 3500 	strd	r3, r5, [r4]
 8001062:	f641 431f 	movw	r3, #7199	; 0x1c1f
 8001066:	e9c4 5505 	strd	r5, r5, [r4, #20]
 800106a:	e9c4 3503 	strd	r3, r5, [r4, #12]
 800106e:	60a5      	str	r5, [r4, #8]
 8001070:	f001 fd68 	bl	8002b44 <HAL_TIM_Base_Init>
 8001074:	b108      	cbz	r0, 800107a <main+0x13a>
 8001076:	b672      	cpsid	i
 8001078:	e7fe      	b.n	8001078 <main+0x138>
 800107a:	4620      	mov	r0, r4
 800107c:	a906      	add	r1, sp, #24
 800107e:	9706      	str	r7, [sp, #24]
 8001080:	f001 fea9 	bl	8002dd6 <HAL_TIM_ConfigClockSource>
 8001084:	b108      	cbz	r0, 800108a <main+0x14a>
 8001086:	b672      	cpsid	i
 8001088:	e7fe      	b.n	8001088 <main+0x148>
 800108a:	4620      	mov	r0, r4
 800108c:	f001 fd86 	bl	8002b9c <HAL_TIM_PWM_Init>
 8001090:	b108      	cbz	r0, 8001096 <main+0x156>
 8001092:	b672      	cpsid	i
 8001094:	e7fe      	b.n	8001094 <main+0x154>
 8001096:	e9cd 0004 	strd	r0, r0, [sp, #16]
 800109a:	a904      	add	r1, sp, #16
 800109c:	4620      	mov	r0, r4
 800109e:	f001 ff9d 	bl	8002fdc <HAL_TIMEx_MasterConfigSynchronization>
 80010a2:	4602      	mov	r2, r0
 80010a4:	b108      	cbz	r0, 80010aa <main+0x16a>
 80010a6:	b672      	cpsid	i
 80010a8:	e7fe      	b.n	80010a8 <main+0x168>
 80010aa:	2360      	movs	r3, #96	; 0x60
 80010ac:	e9cd 000c 	strd	r0, r0, [sp, #48]	; 0x30
 80010b0:	e9cd 300a 	strd	r3, r0, [sp, #40]	; 0x28
 80010b4:	e9cd 000e 	strd	r0, r0, [sp, #56]	; 0x38
 80010b8:	9010      	str	r0, [sp, #64]	; 0x40
 80010ba:	a90a      	add	r1, sp, #40	; 0x28
 80010bc:	4620      	mov	r0, r4
 80010be:	f001 fe25 	bl	8002d0c <HAL_TIM_PWM_ConfigChannel>
 80010c2:	b108      	cbz	r0, 80010c8 <main+0x188>
 80010c4:	b672      	cpsid	i
 80010c6:	e7fe      	b.n	80010c6 <main+0x186>
 80010c8:	2204      	movs	r2, #4
 80010ca:	4620      	mov	r0, r4
 80010cc:	a90a      	add	r1, sp, #40	; 0x28
 80010ce:	f001 fe1d 	bl	8002d0c <HAL_TIM_PWM_ConfigChannel>
 80010d2:	b108      	cbz	r0, 80010d8 <main+0x198>
 80010d4:	b672      	cpsid	i
 80010d6:	e7fe      	b.n	80010d6 <main+0x196>
 80010d8:	2208      	movs	r2, #8
 80010da:	4620      	mov	r0, r4
 80010dc:	a90a      	add	r1, sp, #40	; 0x28
 80010de:	f001 fe15 	bl	8002d0c <HAL_TIM_PWM_ConfigChannel>
 80010e2:	b108      	cbz	r0, 80010e8 <main+0x1a8>
 80010e4:	b672      	cpsid	i
 80010e6:	e7fe      	b.n	80010e6 <main+0x1a6>
 80010e8:	220c      	movs	r2, #12
 80010ea:	4620      	mov	r0, r4
 80010ec:	a90a      	add	r1, sp, #40	; 0x28
 80010ee:	f001 fe0d 	bl	8002d0c <HAL_TIM_PWM_ConfigChannel>
 80010f2:	b108      	cbz	r0, 80010f8 <main+0x1b8>
 80010f4:	b672      	cpsid	i
 80010f6:	e7fe      	b.n	80010f6 <main+0x1b6>
 80010f8:	f44f 5300 	mov.w	r3, #8192	; 0x2000
 80010fc:	e9cd 0011 	strd	r0, r0, [sp, #68]	; 0x44
 8001100:	e9cd 0013 	strd	r0, r0, [sp, #76]	; 0x4c
 8001104:	9015      	str	r0, [sp, #84]	; 0x54
 8001106:	9018      	str	r0, [sp, #96]	; 0x60
 8001108:	a911      	add	r1, sp, #68	; 0x44
 800110a:	4620      	mov	r0, r4
 800110c:	9316      	str	r3, [sp, #88]	; 0x58
 800110e:	f001 ff9b 	bl	8003048 <HAL_TIMEx_ConfigBreakDeadTime>
 8001112:	4603      	mov	r3, r0
 8001114:	b108      	cbz	r0, 800111a <main+0x1da>
 8001116:	b672      	cpsid	i
 8001118:	e7fe      	b.n	8001118 <main+0x1d8>
 800111a:	f04f 4280 	mov.w	r2, #1073741824	; 0x40000000
 800111e:	e9cd 000a 	strd	r0, r0, [sp, #40]	; 0x28
 8001122:	4843      	ldr	r0, [pc, #268]	; (8001230 <main+0x2f0>)
 8001124:	a911      	add	r1, sp, #68	; 0x44
 8001126:	e9c0 2300 	strd	r2, r3, [r0]
 800112a:	f64f 72ff 	movw	r2, #65535	; 0xffff
 800112e:	e9cd 6311 	strd	r6, r3, [sp, #68]	; 0x44
 8001132:	e9c0 2303 	strd	r2, r3, [r0, #12]
 8001136:	e9cd 6313 	strd	r6, r3, [sp, #76]	; 0x4c
 800113a:	e9cd 3315 	strd	r3, r3, [sp, #84]	; 0x54
 800113e:	e9cd 6317 	strd	r6, r3, [sp, #92]	; 0x5c
 8001142:	6083      	str	r3, [r0, #8]
 8001144:	6183      	str	r3, [r0, #24]
 8001146:	9319      	str	r3, [sp, #100]	; 0x64
 8001148:	f001 fd54 	bl	8002bf4 <HAL_TIM_Encoder_Init>
 800114c:	b108      	cbz	r0, 8001152 <main+0x212>
 800114e:	b672      	cpsid	i
 8001150:	e7fe      	b.n	8001150 <main+0x210>
 8001152:	2300      	movs	r3, #0
 8001154:	4836      	ldr	r0, [pc, #216]	; (8001230 <main+0x2f0>)
 8001156:	a90a      	add	r1, sp, #40	; 0x28
 8001158:	e9cd 330a 	strd	r3, r3, [sp, #40]	; 0x28
 800115c:	f001 ff3e 	bl	8002fdc <HAL_TIMEx_MasterConfigSynchronization>
 8001160:	b108      	cbz	r0, 8001166 <main+0x226>
 8001162:	b672      	cpsid	i
 8001164:	e7fe      	b.n	8001164 <main+0x224>
 8001166:	4c33      	ldr	r4, [pc, #204]	; (8001234 <main+0x2f4>)
 8001168:	4b33      	ldr	r3, [pc, #204]	; (8001238 <main+0x2f8>)
 800116a:	2201      	movs	r2, #1
 800116c:	e9c4 3000 	strd	r3, r0, [r4]
 8001170:	f641 431f 	movw	r3, #7199	; 0x1c1f
 8001174:	e9c4 3003 	strd	r3, r0, [r4, #12]
 8001178:	2303      	movs	r3, #3
 800117a:	e9cd 3011 	strd	r3, r0, [sp, #68]	; 0x44
 800117e:	230a      	movs	r3, #10
 8001180:	e9cd 000a 	strd	r0, r0, [sp, #40]	; 0x28
 8001184:	e9cd 2013 	strd	r2, r0, [sp, #76]	; 0x4c
 8001188:	e9cd 3015 	strd	r3, r0, [sp, #84]	; 0x54
 800118c:	e9cd 2017 	strd	r2, r0, [sp, #92]	; 0x5c
 8001190:	60a0      	str	r0, [r4, #8]
 8001192:	61a0      	str	r0, [r4, #24]
 8001194:	a911      	add	r1, sp, #68	; 0x44
 8001196:	4620      	mov	r0, r4
 8001198:	9319      	str	r3, [sp, #100]	; 0x64
 800119a:	f001 fd2b 	bl	8002bf4 <HAL_TIM_Encoder_Init>
 800119e:	b108      	cbz	r0, 80011a4 <main+0x264>
 80011a0:	b672      	cpsid	i
 80011a2:	e7fe      	b.n	80011a2 <main+0x262>
 80011a4:	e9cd 000a 	strd	r0, r0, [sp, #40]	; 0x28
 80011a8:	a90a      	add	r1, sp, #40	; 0x28
 80011aa:	4620      	mov	r0, r4
 80011ac:	f001 ff16 	bl	8002fdc <HAL_TIMEx_MasterConfigSynchronization>
 80011b0:	4605      	mov	r5, r0
 80011b2:	b108      	cbz	r0, 80011b8 <main+0x278>
 80011b4:	b672      	cpsid	i
 80011b6:	e7fe      	b.n	80011b6 <main+0x276>
 80011b8:	4601      	mov	r1, r0
 80011ba:	2210      	movs	r2, #16
 80011bc:	a806      	add	r0, sp, #24
 80011be:	f003 ff09 	bl	8004fd4 <memset>
 80011c2:	221c      	movs	r2, #28
 80011c4:	4629      	mov	r1, r5
 80011c6:	a80a      	add	r0, sp, #40	; 0x28
 80011c8:	e9cd 5504 	strd	r5, r5, [sp, #16]
 80011cc:	f003 ff02 	bl	8004fd4 <memset>
 80011d0:	4629      	mov	r1, r5
 80011d2:	2220      	movs	r2, #32
 80011d4:	a811      	add	r0, sp, #68	; 0x44
 80011d6:	f003 fefd 	bl	8004fd4 <memset>
 80011da:	23a0      	movs	r3, #160	; 0xa0
 80011dc:	4c17      	ldr	r4, [pc, #92]	; (800123c <main+0x2fc>)
 80011de:	4918      	ldr	r1, [pc, #96]	; (8001240 <main+0x300>)
 80011e0:	4620      	mov	r0, r4
 80011e2:	e9c4 1300 	strd	r1, r3, [r4]
 80011e6:	f44f 737a 	mov.w	r3, #1000	; 0x3e8
 80011ea:	e9c4 3503 	strd	r3, r5, [r4, #12]
 80011ee:	2380      	movs	r3, #128	; 0x80
 80011f0:	60a5      	str	r5, [r4, #8]
 80011f2:	6165      	str	r5, [r4, #20]
 80011f4:	61a3      	str	r3, [r4, #24]
 80011f6:	f001 fca5 	bl	8002b44 <HAL_TIM_Base_Init>
 80011fa:	b108      	cbz	r0, 8001200 <main+0x2c0>
 80011fc:	b672      	cpsid	i
 80011fe:	e7fe      	b.n	80011fe <main+0x2be>
 8001200:	f44f 5380 	mov.w	r3, #4096	; 0x1000
 8001204:	4620      	mov	r0, r4
 8001206:	a906      	add	r1, sp, #24
 8001208:	9306      	str	r3, [sp, #24]
 800120a:	f001 fde4 	bl	8002dd6 <HAL_TIM_ConfigClockSource>
 800120e:	b1c8      	cbz	r0, 8001244 <main+0x304>
 8001210:	b672      	cpsid	i
 8001212:	e7fe      	b.n	8001212 <main+0x2d2>
 8001214:	40021000 	.word	0x40021000
 8001218:	40011800 	.word	0x40011800
 800121c:	40010800 	.word	0x40010800
 8001220:	40011000 	.word	0x40011000
 8001224:	40010c00 	.word	0x40010c00
 8001228:	200019ac 	.word	0x200019ac
 800122c:	40013400 	.word	0x40013400
 8001230:	20001b98 	.word	0x20001b98
 8001234:	20001ac8 	.word	0x20001ac8
 8001238:	40000400 	.word	0x40000400
 800123c:	20001b48 	.word	0x20001b48
 8001240:	40012c00 	.word	0x40012c00
 8001244:	4620      	mov	r0, r4
 8001246:	f001 fca9 	bl	8002b9c <HAL_TIM_PWM_Init>
 800124a:	b108      	cbz	r0, 8001250 <main+0x310>
 800124c:	b672      	cpsid	i
 800124e:	e7fe      	b.n	800124e <main+0x30e>
 8001250:	e9cd 0004 	strd	r0, r0, [sp, #16]
 8001254:	a904      	add	r1, sp, #16
 8001256:	4620      	mov	r0, r4
 8001258:	f001 fec0 	bl	8002fdc <HAL_TIMEx_MasterConfigSynchronization>
 800125c:	b108      	cbz	r0, 8001262 <main+0x322>
 800125e:	b672      	cpsid	i
 8001260:	e7fe      	b.n	8001260 <main+0x320>
 8001262:	2360      	movs	r3, #96	; 0x60
 8001264:	e9cd 000e 	strd	r0, r0, [sp, #56]	; 0x38
 8001268:	e9cd 300a 	strd	r3, r0, [sp, #40]	; 0x28
 800126c:	900c      	str	r0, [sp, #48]	; 0x30
 800126e:	9010      	str	r0, [sp, #64]	; 0x40
 8001270:	220c      	movs	r2, #12
 8001272:	4620      	mov	r0, r4
 8001274:	a90a      	add	r1, sp, #40	; 0x28
 8001276:	f001 fd49 	bl	8002d0c <HAL_TIM_PWM_ConfigChannel>
 800127a:	b108      	cbz	r0, 8001280 <main+0x340>
 800127c:	b672      	cpsid	i
 800127e:	e7fe      	b.n	800127e <main+0x33e>
 8001280:	f44f 5300 	mov.w	r3, #8192	; 0x2000
 8001284:	e9cd 0011 	strd	r0, r0, [sp, #68]	; 0x44
 8001288:	e9cd 0013 	strd	r0, r0, [sp, #76]	; 0x4c
 800128c:	9015      	str	r0, [sp, #84]	; 0x54
 800128e:	9018      	str	r0, [sp, #96]	; 0x60
 8001290:	a911      	add	r1, sp, #68	; 0x44
 8001292:	4620      	mov	r0, r4
 8001294:	9316      	str	r3, [sp, #88]	; 0x58
 8001296:	f001 fed7 	bl	8003048 <HAL_TIMEx_ConfigBreakDeadTime>
 800129a:	4605      	mov	r5, r0
 800129c:	b108      	cbz	r0, 80012a2 <main+0x362>
 800129e:	b672      	cpsid	i
 80012a0:	e7fe      	b.n	80012a0 <main+0x360>
 80012a2:	4620      	mov	r0, r4
 80012a4:	f000 fb80 	bl	80019a8 <HAL_TIM_MspPostInit>
 80012a8:	f44f 33e1 	mov.w	r3, #115200	; 0x1c200
 80012ac:	4850      	ldr	r0, [pc, #320]	; (80013f0 <main+0x4b0>)
 80012ae:	4a51      	ldr	r2, [pc, #324]	; (80013f4 <main+0x4b4>)
 80012b0:	e9c0 5502 	strd	r5, r5, [r0, #8]
 80012b4:	e9c0 2300 	strd	r2, r3, [r0]
 80012b8:	230c      	movs	r3, #12
 80012ba:	6105      	str	r5, [r0, #16]
 80012bc:	e9c0 3505 	strd	r3, r5, [r0, #20]
 80012c0:	61c5      	str	r5, [r0, #28]
 80012c2:	f001 ff5f 	bl	8003184 <HAL_UART_Init>
 80012c6:	b108      	cbz	r0, 80012cc <main+0x38c>
 80012c8:	b672      	cpsid	i
 80012ca:	e7fe      	b.n	80012ca <main+0x38a>
 80012cc:	2300      	movs	r3, #0
 80012ce:	2501      	movs	r5, #1
 80012d0:	f04f 080a 	mov.w	r8, #10
 80012d4:	f64f 77ff 	movw	r7, #65535	; 0xffff
 80012d8:	2603      	movs	r6, #3
 80012da:	4c47      	ldr	r4, [pc, #284]	; (80013f8 <main+0x4b8>)
 80012dc:	4a47      	ldr	r2, [pc, #284]	; (80013fc <main+0x4bc>)
 80012de:	4620      	mov	r0, r4
 80012e0:	a911      	add	r1, sp, #68	; 0x44
 80012e2:	e9cd 330a 	strd	r3, r3, [sp, #40]	; 0x28
 80012e6:	e9c4 2300 	strd	r2, r3, [r4]
 80012ea:	e9c4 7303 	strd	r7, r3, [r4, #12]
 80012ee:	e9cd 6311 	strd	r6, r3, [sp, #68]	; 0x44
 80012f2:	e9cd 5313 	strd	r5, r3, [sp, #76]	; 0x4c
 80012f6:	e9cd 8315 	strd	r8, r3, [sp, #84]	; 0x54
 80012fa:	e9cd 5317 	strd	r5, r3, [sp, #92]	; 0x5c
 80012fe:	60a3      	str	r3, [r4, #8]
 8001300:	61a3      	str	r3, [r4, #24]
 8001302:	f8cd 8064 	str.w	r8, [sp, #100]	; 0x64
 8001306:	f001 fc75 	bl	8002bf4 <HAL_TIM_Encoder_Init>
 800130a:	b108      	cbz	r0, 8001310 <main+0x3d0>
 800130c:	b672      	cpsid	i
 800130e:	e7fe      	b.n	800130e <main+0x3ce>
 8001310:	e9cd 000a 	strd	r0, r0, [sp, #40]	; 0x28
 8001314:	a90a      	add	r1, sp, #40	; 0x28
 8001316:	4620      	mov	r0, r4
 8001318:	f001 fe60 	bl	8002fdc <HAL_TIMEx_MasterConfigSynchronization>
 800131c:	b108      	cbz	r0, 8001322 <main+0x3e2>
 800131e:	b672      	cpsid	i
 8001320:	e7fe      	b.n	8001320 <main+0x3e0>
 8001322:	4c37      	ldr	r4, [pc, #220]	; (8001400 <main+0x4c0>)
 8001324:	4b37      	ldr	r3, [pc, #220]	; (8001404 <main+0x4c4>)
 8001326:	e9cd 000a 	strd	r0, r0, [sp, #40]	; 0x28
 800132a:	e9c4 3000 	strd	r3, r0, [r4]
 800132e:	e9c4 0702 	strd	r0, r7, [r4, #8]
 8001332:	e9cd 6011 	strd	r6, r0, [sp, #68]	; 0x44
 8001336:	e9cd 5013 	strd	r5, r0, [sp, #76]	; 0x4c
 800133a:	e9cd 8015 	strd	r8, r0, [sp, #84]	; 0x54
 800133e:	e9cd 5017 	strd	r5, r0, [sp, #92]	; 0x5c
 8001342:	6120      	str	r0, [r4, #16]
 8001344:	61a0      	str	r0, [r4, #24]
 8001346:	a911      	add	r1, sp, #68	; 0x44
 8001348:	4620      	mov	r0, r4
 800134a:	f8cd 8064 	str.w	r8, [sp, #100]	; 0x64
 800134e:	f001 fc51 	bl	8002bf4 <HAL_TIM_Encoder_Init>
 8001352:	b108      	cbz	r0, 8001358 <main+0x418>
 8001354:	b672      	cpsid	i
 8001356:	e7fe      	b.n	8001356 <main+0x416>
 8001358:	e9cd 000a 	strd	r0, r0, [sp, #40]	; 0x28
 800135c:	a90a      	add	r1, sp, #40	; 0x28
 800135e:	4620      	mov	r0, r4
 8001360:	f001 fe3c 	bl	8002fdc <HAL_TIMEx_MasterConfigSynchronization>
 8001364:	b108      	cbz	r0, 800136a <main+0x42a>
 8001366:	b672      	cpsid	i
 8001368:	e7fe      	b.n	8001368 <main+0x428>
 800136a:	4c27      	ldr	r4, [pc, #156]	; (8001408 <main+0x4c8>)
 800136c:	4b27      	ldr	r3, [pc, #156]	; (800140c <main+0x4cc>)
 800136e:	e9cd 0011 	strd	r0, r0, [sp, #68]	; 0x44
 8001372:	6023      	str	r3, [r4, #0]
 8001374:	f44f 2360 	mov.w	r3, #917504	; 0xe0000
 8001378:	9013      	str	r0, [sp, #76]	; 0x4c
 800137a:	60a0      	str	r0, [r4, #8]
 800137c:	7320      	strb	r0, [r4, #12]
 800137e:	7520      	strb	r0, [r4, #20]
 8001380:	6060      	str	r0, [r4, #4]
 8001382:	4620      	mov	r0, r4
 8001384:	61e3      	str	r3, [r4, #28]
 8001386:	6125      	str	r5, [r4, #16]
 8001388:	f000 fcea 	bl	8001d60 <HAL_ADC_Init>
 800138c:	b108      	cbz	r0, 8001392 <main+0x452>
 800138e:	b672      	cpsid	i
 8001390:	e7fe      	b.n	8001390 <main+0x450>
 8001392:	230b      	movs	r3, #11
 8001394:	9013      	str	r0, [sp, #76]	; 0x4c
 8001396:	a911      	add	r1, sp, #68	; 0x44
 8001398:	4620      	mov	r0, r4
 800139a:	e9cd 3511 	strd	r3, r5, [sp, #68]	; 0x44
 800139e:	f000 fc3b 	bl	8001c18 <HAL_ADC_ConfigChannel>
 80013a2:	4604      	mov	r4, r0
 80013a4:	b108      	cbz	r0, 80013aa <main+0x46a>
 80013a6:	b672      	cpsid	i
 80013a8:	e7fe      	b.n	80013a8 <main+0x468>
 80013aa:	f000 f933 	bl	8001614 <OLED_Init>
 80013ae:	f002 f8fb 	bl	80035a8 <osKernelInitialize>
 80013b2:	4621      	mov	r1, r4
 80013b4:	4a16      	ldr	r2, [pc, #88]	; (8001410 <main+0x4d0>)
 80013b6:	4817      	ldr	r0, [pc, #92]	; (8001414 <main+0x4d4>)
 80013b8:	f002 f932 	bl	8003620 <osThreadNew>
 80013bc:	4b16      	ldr	r3, [pc, #88]	; (8001418 <main+0x4d8>)
 80013be:	4621      	mov	r1, r4
 80013c0:	6018      	str	r0, [r3, #0]
 80013c2:	4a16      	ldr	r2, [pc, #88]	; (800141c <main+0x4dc>)
 80013c4:	4816      	ldr	r0, [pc, #88]	; (8001420 <main+0x4e0>)
 80013c6:	f002 f92b 	bl	8003620 <osThreadNew>
 80013ca:	4b16      	ldr	r3, [pc, #88]	; (8001424 <main+0x4e4>)
 80013cc:	4621      	mov	r1, r4
 80013ce:	6018      	str	r0, [r3, #0]
 80013d0:	4a15      	ldr	r2, [pc, #84]	; (8001428 <main+0x4e8>)
 80013d2:	4816      	ldr	r0, [pc, #88]	; (800142c <main+0x4ec>)
 80013d4:	f002 f924 	bl	8003620 <osThreadNew>
 80013d8:	4b15      	ldr	r3, [pc, #84]	; (8001430 <main+0x4f0>)
 80013da:	4621      	mov	r1, r4
 80013dc:	6018      	str	r0, [r3, #0]
 80013de:	4a15      	ldr	r2, [pc, #84]	; (8001434 <main+0x4f4>)
 80013e0:	4815      	ldr	r0, [pc, #84]	; (8001438 <main+0x4f8>)
 80013e2:	f002 f91d 	bl	8003620 <osThreadNew>
 80013e6:	4b15      	ldr	r3, [pc, #84]	; (800143c <main+0x4fc>)
 80013e8:	6018      	str	r0, [r3, #0]
 80013ea:	f002 f8f9 	bl	80035e0 <osKernelStart>
 80013ee:	e7fe      	b.n	80013ee <main+0x4ae>
 80013f0:	20001a3c 	.word	0x20001a3c
 80013f4:	40004800 	.word	0x40004800
 80013f8:	200019f4 	.word	0x200019f4
 80013fc:	40000800 	.word	0x40000800
 8001400:	20001a80 	.word	0x20001a80
 8001404:	40000c00 	.word	0x40000c00
 8001408:	20001b10 	.word	0x20001b10
 800140c:	40012400 	.word	0x40012400
 8001410:	08005a60 	.word	0x08005a60
 8001414:	08000231 	.word	0x08000231
 8001418:	200019a8 	.word	0x200019a8
 800141c:	08005a18 	.word	0x08005a18
 8001420:	08000871 	.word	0x08000871
 8001424:	20001b40 	.word	0x20001b40
 8001428:	080059f4 	.word	0x080059f4
 800142c:	080002d9 	.word	0x080002d9
 8001430:	20001b44 	.word	0x20001b44
 8001434:	08005a3c 	.word	0x08005a3c
 8001438:	0800083d 	.word	0x0800083d
 800143c:	200019a4 	.word	0x200019a4

08001440 <HAL_UART_RxCpltCallback>:
 8001440:	4770      	bx	lr
	...

08001444 <OLED_WR_Byte>:
 8001444:	b570      	push	{r4, r5, r6, lr}
 8001446:	460a      	mov	r2, r1
 8001448:	4604      	mov	r4, r0
 800144a:	b101      	cbz	r1, 800144e <OLED_WR_Byte+0xa>
 800144c:	2201      	movs	r2, #1
 800144e:	f44f 7180 	mov.w	r1, #256	; 0x100
 8001452:	4812      	ldr	r0, [pc, #72]	; (800149c <OLED_WR_Byte+0x58>)
 8001454:	f000 ff1c 	bl	8002290 <HAL_GPIO_WritePin>
 8001458:	2508      	movs	r5, #8
 800145a:	4e10      	ldr	r6, [pc, #64]	; (800149c <OLED_WR_Byte+0x58>)
 800145c:	2200      	movs	r2, #0
 800145e:	2120      	movs	r1, #32
 8001460:	4630      	mov	r0, r6
 8001462:	f000 ff15 	bl	8002290 <HAL_GPIO_WritePin>
 8001466:	0623      	lsls	r3, r4, #24
 8001468:	bf4c      	ite	mi
 800146a:	2201      	movmi	r2, #1
 800146c:	2200      	movpl	r2, #0
 800146e:	2140      	movs	r1, #64	; 0x40
 8001470:	4630      	mov	r0, r6
 8001472:	f000 ff0d 	bl	8002290 <HAL_GPIO_WritePin>
 8001476:	3d01      	subs	r5, #1
 8001478:	2201      	movs	r2, #1
 800147a:	2120      	movs	r1, #32
 800147c:	4630      	mov	r0, r6
 800147e:	f000 ff07 	bl	8002290 <HAL_GPIO_WritePin>
 8001482:	0064      	lsls	r4, r4, #1
 8001484:	f015 05ff 	ands.w	r5, r5, #255	; 0xff
 8001488:	b2e4      	uxtb	r4, r4
 800148a:	d1e7      	bne.n	800145c <OLED_WR_Byte+0x18>
 800148c:	e8bd 4070 	ldmia.w	sp!, {r4, r5, r6, lr}
 8001490:	2201      	movs	r2, #1
 8001492:	f44f 7180 	mov.w	r1, #256	; 0x100
 8001496:	4801      	ldr	r0, [pc, #4]	; (800149c <OLED_WR_Byte+0x58>)
 8001498:	f000 befa 	b.w	8002290 <HAL_GPIO_WritePin>
 800149c:	40011800 	.word	0x40011800

080014a0 <OLED_Refresh_Gram>:
 80014a0:	b570      	push	{r4, r5, r6, lr}
 80014a2:	24b0      	movs	r4, #176	; 0xb0
 80014a4:	4e0e      	ldr	r6, [pc, #56]	; (80014e0 <OLED_Refresh_Gram+0x40>)
 80014a6:	2100      	movs	r1, #0
 80014a8:	4620      	mov	r0, r4
 80014aa:	f7ff ffcb 	bl	8001444 <OLED_WR_Byte>
 80014ae:	2100      	movs	r1, #0
 80014b0:	4608      	mov	r0, r1
 80014b2:	f7ff ffc7 	bl	8001444 <OLED_WR_Byte>
 80014b6:	2100      	movs	r1, #0
 80014b8:	2010      	movs	r0, #16
 80014ba:	f7ff ffc3 	bl	8001444 <OLED_WR_Byte>
 80014be:	2500      	movs	r5, #0
 80014c0:	f816 0035 	ldrb.w	r0, [r6, r5, lsl #3]
 80014c4:	2101      	movs	r1, #1
 80014c6:	3501      	adds	r5, #1
 80014c8:	f7ff ffbc 	bl	8001444 <OLED_WR_Byte>
 80014cc:	2d80      	cmp	r5, #128	; 0x80
 80014ce:	d1f7      	bne.n	80014c0 <OLED_Refresh_Gram+0x20>
 80014d0:	3401      	adds	r4, #1
 80014d2:	b2e4      	uxtb	r4, r4
 80014d4:	2cb8      	cmp	r4, #184	; 0xb8
 80014d6:	f106 0601 	add.w	r6, r6, #1
 80014da:	d1e4      	bne.n	80014a6 <OLED_Refresh_Gram+0x6>
 80014dc:	bd70      	pop	{r4, r5, r6, pc}
 80014de:	bf00      	nop
 80014e0:	20001bea 	.word	0x20001bea

080014e4 <OLED_Clear>:
 80014e4:	2308      	movs	r3, #8
 80014e6:	2000      	movs	r0, #0
 80014e8:	4907      	ldr	r1, [pc, #28]	; (8001508 <OLED_Clear+0x24>)
 80014ea:	2200      	movs	r2, #0
 80014ec:	f801 0032 	strb.w	r0, [r1, r2, lsl #3]
 80014f0:	3201      	adds	r2, #1
 80014f2:	2a80      	cmp	r2, #128	; 0x80
 80014f4:	d1fa      	bne.n	80014ec <OLED_Clear+0x8>
 80014f6:	3b01      	subs	r3, #1
 80014f8:	f013 03ff 	ands.w	r3, r3, #255	; 0xff
 80014fc:	f101 0101 	add.w	r1, r1, #1
 8001500:	d1f3      	bne.n	80014ea <OLED_Clear+0x6>
 8001502:	f7ff bfcd 	b.w	80014a0 <OLED_Refresh_Gram>
 8001506:	bf00      	nop
 8001508:	20001bea 	.word	0x20001bea

0800150c <OLED_DrawPoint>:
 800150c:	0603      	lsls	r3, r0, #24
 800150e:	b530      	push	{r4, r5, lr}
 8001510:	d413      	bmi.n	800153a <OLED_DrawPoint+0x2e>
 8001512:	293f      	cmp	r1, #63	; 0x3f
 8001514:	d811      	bhi.n	800153a <OLED_DrawPoint+0x2e>
 8001516:	2301      	movs	r3, #1
 8001518:	f001 0507 	and.w	r5, r1, #7
 800151c:	4c09      	ldr	r4, [pc, #36]	; (8001544 <OLED_DrawPoint+0x38>)
 800151e:	08c9      	lsrs	r1, r1, #3
 8001520:	f1c1 0107 	rsb	r1, r1, #7
 8001524:	f1c5 0507 	rsb	r5, r5, #7
 8001528:	b2c9      	uxtb	r1, r1
 800152a:	eb04 00c0 	add.w	r0, r4, r0, lsl #3
 800152e:	fa03 f505 	lsl.w	r5, r3, r5
 8001532:	5c43      	ldrb	r3, [r0, r1]
 8001534:	b112      	cbz	r2, 800153c <OLED_DrawPoint+0x30>
 8001536:	432b      	orrs	r3, r5
 8001538:	5443      	strb	r3, [r0, r1]
 800153a:	bd30      	pop	{r4, r5, pc}
 800153c:	ea23 0305 	bic.w	r3, r3, r5
 8001540:	e7fa      	b.n	8001538 <OLED_DrawPoint+0x2c>
 8001542:	bf00      	nop
 8001544:	20001bea 	.word	0x20001bea

08001548 <OLED_ShowChar>:
 8001548:	e92d 4ff7 	stmdb	sp!, {r0, r1, r2, r4, r5, r6, r7, r8, r9, sl, fp, lr}
 800154c:	f1a2 0520 	sub.w	r5, r2, #32
 8001550:	4698      	mov	r8, r3
 8001552:	4b1e      	ldr	r3, [pc, #120]	; (80015cc <OLED_ShowChar+0x84>)
 8001554:	b2ed      	uxtb	r5, r5
 8001556:	eb03 1305 	add.w	r3, r3, r5, lsl #4
 800155a:	9300      	str	r3, [sp, #0]
 800155c:	230c      	movs	r3, #12
 800155e:	4682      	mov	sl, r0
 8001560:	4689      	mov	r9, r1
 8001562:	460c      	mov	r4, r1
 8001564:	2700      	movs	r7, #0
 8001566:	4a1a      	ldr	r2, [pc, #104]	; (80015d0 <OLED_ShowChar+0x88>)
 8001568:	f89d b030 	ldrb.w	fp, [sp, #48]	; 0x30
 800156c:	fb03 2305 	mla	r3, r3, r5, r2
 8001570:	9301      	str	r3, [sp, #4]
 8001572:	45b8      	cmp	r8, r7
 8001574:	d102      	bne.n	800157c <OLED_ShowChar+0x34>
 8001576:	b003      	add	sp, #12
 8001578:	e8bd 8ff0 	ldmia.w	sp!, {r4, r5, r6, r7, r8, r9, sl, fp, pc}
 800157c:	f1b8 0f0c 	cmp.w	r8, #12
 8001580:	bf0c      	ite	eq
 8001582:	9b01      	ldreq	r3, [sp, #4]
 8001584:	9b00      	ldrne	r3, [sp, #0]
 8001586:	5dde      	ldrb	r6, [r3, r7]
 8001588:	f104 0308 	add.w	r3, r4, #8
 800158c:	b2dd      	uxtb	r5, r3
 800158e:	0633      	lsls	r3, r6, #24
 8001590:	bf58      	it	pl
 8001592:	fabb f28b 	clzpl	r2, fp
 8001596:	4621      	mov	r1, r4
 8001598:	f104 0401 	add.w	r4, r4, #1
 800159c:	bf4c      	ite	mi
 800159e:	465a      	movmi	r2, fp
 80015a0:	0952      	lsrpl	r2, r2, #5
 80015a2:	4650      	mov	r0, sl
 80015a4:	b2e4      	uxtb	r4, r4
 80015a6:	f7ff ffb1 	bl	800150c <OLED_DrawPoint>
 80015aa:	eba4 0209 	sub.w	r2, r4, r9
 80015ae:	0076      	lsls	r6, r6, #1
 80015b0:	4542      	cmp	r2, r8
 80015b2:	b2f6      	uxtb	r6, r6
 80015b4:	d107      	bne.n	80015c6 <OLED_ShowChar+0x7e>
 80015b6:	464d      	mov	r5, r9
 80015b8:	f10a 0001 	add.w	r0, sl, #1
 80015bc:	fa5f fa80 	uxtb.w	sl, r0
 80015c0:	462c      	mov	r4, r5
 80015c2:	3701      	adds	r7, #1
 80015c4:	e7d5      	b.n	8001572 <OLED_ShowChar+0x2a>
 80015c6:	42a5      	cmp	r5, r4
 80015c8:	d1e1      	bne.n	800158e <OLED_ShowChar+0x46>
 80015ca:	e7f9      	b.n	80015c0 <OLED_ShowChar+0x78>
 80015cc:	08005ef8 	.word	0x08005ef8
 80015d0:	08005a84 	.word	0x08005a84

080015d4 <OLED_ShowString>:
 80015d4:	b5f7      	push	{r0, r1, r2, r4, r5, r6, r7, lr}
 80015d6:	4604      	mov	r4, r0
 80015d8:	460d      	mov	r5, r1
 80015da:	2701      	movs	r7, #1
 80015dc:	1e56      	subs	r6, r2, #1
 80015de:	f816 3f01 	ldrb.w	r3, [r6, #1]!
 80015e2:	b90b      	cbnz	r3, 80015e8 <OLED_ShowString+0x14>
 80015e4:	b003      	add	sp, #12
 80015e6:	bdf0      	pop	{r4, r5, r6, r7, pc}
 80015e8:	2c7a      	cmp	r4, #122	; 0x7a
 80015ea:	bf82      	ittt	hi
 80015ec:	3510      	addhi	r5, #16
 80015ee:	b2ed      	uxtbhi	r5, r5
 80015f0:	2400      	movhi	r4, #0
 80015f2:	2d3a      	cmp	r5, #58	; 0x3a
 80015f4:	d903      	bls.n	80015fe <OLED_ShowString+0x2a>
 80015f6:	2500      	movs	r5, #0
 80015f8:	f7ff ff74 	bl	80014e4 <OLED_Clear>
 80015fc:	462c      	mov	r4, r5
 80015fe:	9700      	str	r7, [sp, #0]
 8001600:	4620      	mov	r0, r4
 8001602:	230c      	movs	r3, #12
 8001604:	4629      	mov	r1, r5
 8001606:	7832      	ldrb	r2, [r6, #0]
 8001608:	3408      	adds	r4, #8
 800160a:	f7ff ff9d 	bl	8001548 <OLED_ShowChar>
 800160e:	b2e4      	uxtb	r4, r4
 8001610:	e7e5      	b.n	80015de <OLED_ShowString+0xa>
	...

08001614 <OLED_Init>:
 8001614:	b510      	push	{r4, lr}
 8001616:	f000 fe49 	bl	80022ac <HAL_PWR_EnableBkUpAccess>
 800161a:	4b40      	ldr	r3, [pc, #256]	; (800171c <OLED_Init+0x108>)
 800161c:	4c40      	ldr	r4, [pc, #256]	; (8001720 <OLED_Init+0x10c>)
 800161e:	6a1a      	ldr	r2, [r3, #32]
 8001620:	f022 0201 	bic.w	r2, r2, #1
 8001624:	621a      	str	r2, [r3, #32]
 8001626:	6a1a      	ldr	r2, [r3, #32]
 8001628:	f022 0204 	bic.w	r2, r2, #4
 800162c:	621a      	str	r2, [r3, #32]
 800162e:	f000 fe43 	bl	80022b8 <HAL_PWR_DisableBkUpAccess>
 8001632:	2200      	movs	r2, #0
 8001634:	2180      	movs	r1, #128	; 0x80
 8001636:	4620      	mov	r0, r4
 8001638:	f000 fe2a 	bl	8002290 <HAL_GPIO_WritePin>
 800163c:	2064      	movs	r0, #100	; 0x64
 800163e:	f000 fad9 	bl	8001bf4 <HAL_Delay>
 8001642:	2201      	movs	r2, #1
 8001644:	4620      	mov	r0, r4
 8001646:	2180      	movs	r1, #128	; 0x80
 8001648:	f000 fe22 	bl	8002290 <HAL_GPIO_WritePin>
 800164c:	2100      	movs	r1, #0
 800164e:	20ae      	movs	r0, #174	; 0xae
 8001650:	f7ff fef8 	bl	8001444 <OLED_WR_Byte>
 8001654:	2100      	movs	r1, #0
 8001656:	20d5      	movs	r0, #213	; 0xd5
 8001658:	f7ff fef4 	bl	8001444 <OLED_WR_Byte>
 800165c:	2100      	movs	r1, #0
 800165e:	2050      	movs	r0, #80	; 0x50
 8001660:	f7ff fef0 	bl	8001444 <OLED_WR_Byte>
 8001664:	2100      	movs	r1, #0
 8001666:	20a8      	movs	r0, #168	; 0xa8
 8001668:	f7ff feec 	bl	8001444 <OLED_WR_Byte>
 800166c:	2100      	movs	r1, #0
 800166e:	203f      	movs	r0, #63	; 0x3f
 8001670:	f7ff fee8 	bl	8001444 <OLED_WR_Byte>
 8001674:	2100      	movs	r1, #0
 8001676:	20d3      	movs	r0, #211	; 0xd3
 8001678:	f7ff fee4 	bl	8001444 <OLED_WR_Byte>
 800167c:	2100      	movs	r1, #0
 800167e:	4608      	mov	r0, r1
 8001680:	f7ff fee0 	bl	8001444 <OLED_WR_Byte>
 8001684:	2100      	movs	r1, #0
 8001686:	2040      	movs	r0, #64	; 0x40
 8001688:	f7ff fedc 	bl	8001444 <OLED_WR_Byte>
 800168c:	2100      	movs	r1, #0
 800168e:	208d      	movs	r0, #141	; 0x8d
 8001690:	f7ff fed8 	bl	8001444 <OLED_WR_Byte>
 8001694:	2100      	movs	r1, #0
 8001696:	2014      	movs	r0, #20
 8001698:	f7ff fed4 	bl	8001444 <OLED_WR_Byte>
 800169c:	2100      	movs	r1, #0
 800169e:	2020      	movs	r0, #32
 80016a0:	f7ff fed0 	bl	8001444 <OLED_WR_Byte>
 80016a4:	2100      	movs	r1, #0
 80016a6:	2002      	movs	r0, #2
 80016a8:	f7ff fecc 	bl	8001444 <OLED_WR_Byte>
 80016ac:	2100      	movs	r1, #0
 80016ae:	20a1      	movs	r0, #161	; 0xa1
 80016b0:	f7ff fec8 	bl	8001444 <OLED_WR_Byte>
 80016b4:	2100      	movs	r1, #0
 80016b6:	20c0      	movs	r0, #192	; 0xc0
 80016b8:	f7ff fec4 	bl	8001444 <OLED_WR_Byte>
 80016bc:	2100      	movs	r1, #0
 80016be:	20da      	movs	r0, #218	; 0xda
 80016c0:	f7ff fec0 	bl	8001444 <OLED_WR_Byte>
 80016c4:	2100      	movs	r1, #0
 80016c6:	2012      	movs	r0, #18
 80016c8:	f7ff febc 	bl	8001444 <OLED_WR_Byte>
 80016cc:	2100      	movs	r1, #0
 80016ce:	2081      	movs	r0, #129	; 0x81
 80016d0:	f7ff feb8 	bl	8001444 <OLED_WR_Byte>
 80016d4:	2100      	movs	r1, #0
 80016d6:	20ef      	movs	r0, #239	; 0xef
 80016d8:	f7ff feb4 	bl	8001444 <OLED_WR_Byte>
 80016dc:	2100      	movs	r1, #0
 80016de:	20d9      	movs	r0, #217	; 0xd9
 80016e0:	f7ff feb0 	bl	8001444 <OLED_WR_Byte>
 80016e4:	2100      	movs	r1, #0
 80016e6:	20f1      	movs	r0, #241	; 0xf1
 80016e8:	f7ff feac 	bl	8001444 <OLED_WR_Byte>
 80016ec:	2100      	movs	r1, #0
 80016ee:	20db      	movs	r0, #219	; 0xdb
 80016f0:	f7ff fea8 	bl	8001444 <OLED_WR_Byte>
 80016f4:	2100      	movs	r1, #0
 80016f6:	2030      	movs	r0, #48	; 0x30
 80016f8:	f7ff fea4 	bl	8001444 <OLED_WR_Byte>
 80016fc:	2100      	movs	r1, #0
 80016fe:	20a4      	movs	r0, #164	; 0xa4
 8001700:	f7ff fea0 	bl	8001444 <OLED_WR_Byte>
 8001704:	2100      	movs	r1, #0
 8001706:	20a6      	movs	r0, #166	; 0xa6
 8001708:	f7ff fe9c 	bl	8001444 <OLED_WR_Byte>
 800170c:	2100      	movs	r1, #0
 800170e:	20af      	movs	r0, #175	; 0xaf
 8001710:	f7ff fe98 	bl	8001444 <OLED_WR_Byte>
 8001714:	e8bd 4010 	ldmia.w	sp!, {r4, lr}
 8001718:	f7ff bee4 	b.w	80014e4 <OLED_Clear>
 800171c:	40021000 	.word	0x40021000
 8001720:	40011800 	.word	0x40011800

08001724 <HAL_MspInit>:
 8001724:	4b11      	ldr	r3, [pc, #68]	; (800176c <HAL_MspInit+0x48>)
 8001726:	b507      	push	{r0, r1, r2, lr}
 8001728:	699a      	ldr	r2, [r3, #24]
 800172a:	210f      	movs	r1, #15
 800172c:	f042 0201 	orr.w	r2, r2, #1
 8001730:	619a      	str	r2, [r3, #24]
 8001732:	699a      	ldr	r2, [r3, #24]
 8001734:	f06f 0001 	mvn.w	r0, #1
 8001738:	f002 0201 	and.w	r2, r2, #1
 800173c:	9200      	str	r2, [sp, #0]
 800173e:	9a00      	ldr	r2, [sp, #0]
 8001740:	69da      	ldr	r2, [r3, #28]
 8001742:	f042 5280 	orr.w	r2, r2, #268435456	; 0x10000000
 8001746:	61da      	str	r2, [r3, #28]
 8001748:	69db      	ldr	r3, [r3, #28]
 800174a:	2200      	movs	r2, #0
 800174c:	f003 5380 	and.w	r3, r3, #268435456	; 0x10000000
 8001750:	9301      	str	r3, [sp, #4]
 8001752:	9b01      	ldr	r3, [sp, #4]
 8001754:	f000 fba0 	bl	8001e98 <HAL_NVIC_SetPriority>
 8001758:	4a05      	ldr	r2, [pc, #20]	; (8001770 <HAL_MspInit+0x4c>)
 800175a:	6853      	ldr	r3, [r2, #4]
 800175c:	f023 63e0 	bic.w	r3, r3, #117440512	; 0x7000000
 8001760:	f043 7300 	orr.w	r3, r3, #33554432	; 0x2000000
 8001764:	6053      	str	r3, [r2, #4]
 8001766:	b003      	add	sp, #12
 8001768:	f85d fb04 	ldr.w	pc, [sp], #4
 800176c:	40021000 	.word	0x40021000
 8001770:	40010000 	.word	0x40010000

08001774 <HAL_ADC_MspInit>:
 8001774:	b510      	push	{r4, lr}
 8001776:	4604      	mov	r4, r0
 8001778:	b086      	sub	sp, #24
 800177a:	2210      	movs	r2, #16
 800177c:	2100      	movs	r1, #0
 800177e:	a802      	add	r0, sp, #8
 8001780:	f003 fc28 	bl	8004fd4 <memset>
 8001784:	6822      	ldr	r2, [r4, #0]
 8001786:	4b10      	ldr	r3, [pc, #64]	; (80017c8 <HAL_ADC_MspInit+0x54>)
 8001788:	429a      	cmp	r2, r3
 800178a:	d11b      	bne.n	80017c4 <HAL_ADC_MspInit+0x50>
 800178c:	f503 436c 	add.w	r3, r3, #60416	; 0xec00
 8001790:	699a      	ldr	r2, [r3, #24]
 8001792:	480e      	ldr	r0, [pc, #56]	; (80017cc <HAL_ADC_MspInit+0x58>)
 8001794:	f442 7200 	orr.w	r2, r2, #512	; 0x200
 8001798:	619a      	str	r2, [r3, #24]
 800179a:	699a      	ldr	r2, [r3, #24]
 800179c:	a902      	add	r1, sp, #8
 800179e:	f402 7200 	and.w	r2, r2, #512	; 0x200
 80017a2:	9200      	str	r2, [sp, #0]
 80017a4:	9a00      	ldr	r2, [sp, #0]
 80017a6:	699a      	ldr	r2, [r3, #24]
 80017a8:	f042 0210 	orr.w	r2, r2, #16
 80017ac:	619a      	str	r2, [r3, #24]
 80017ae:	699b      	ldr	r3, [r3, #24]
 80017b0:	2202      	movs	r2, #2
 80017b2:	f003 0310 	and.w	r3, r3, #16
 80017b6:	9301      	str	r3, [sp, #4]
 80017b8:	9b01      	ldr	r3, [sp, #4]
 80017ba:	2303      	movs	r3, #3
 80017bc:	e9cd 2302 	strd	r2, r3, [sp, #8]
 80017c0:	f000 fc7c 	bl	80020bc <HAL_GPIO_Init>
 80017c4:	b006      	add	sp, #24
 80017c6:	bd10      	pop	{r4, pc}
 80017c8:	40012400 	.word	0x40012400
 80017cc:	40011000 	.word	0x40011000

080017d0 <HAL_TIM_Base_MspInit>:
 80017d0:	2210      	movs	r2, #16
 80017d2:	b510      	push	{r4, lr}
 80017d4:	4604      	mov	r4, r0
 80017d6:	b088      	sub	sp, #32
 80017d8:	eb0d 0002 	add.w	r0, sp, r2
 80017dc:	2100      	movs	r1, #0
 80017de:	f003 fbf9 	bl	8004fd4 <memset>
 80017e2:	6823      	ldr	r3, [r4, #0]
 80017e4:	4a17      	ldr	r2, [pc, #92]	; (8001844 <HAL_TIM_Base_MspInit+0x74>)
 80017e6:	4293      	cmp	r3, r2
 80017e8:	d10b      	bne.n	8001802 <HAL_TIM_Base_MspInit+0x32>
 80017ea:	4b17      	ldr	r3, [pc, #92]	; (8001848 <HAL_TIM_Base_MspInit+0x78>)
 80017ec:	699a      	ldr	r2, [r3, #24]
 80017ee:	f442 6200 	orr.w	r2, r2, #2048	; 0x800
 80017f2:	619a      	str	r2, [r3, #24]
 80017f4:	699b      	ldr	r3, [r3, #24]
 80017f6:	f403 6300 	and.w	r3, r3, #2048	; 0x800
 80017fa:	9301      	str	r3, [sp, #4]
 80017fc:	9b01      	ldr	r3, [sp, #4]
 80017fe:	b008      	add	sp, #32
 8001800:	bd10      	pop	{r4, pc}
 8001802:	4a12      	ldr	r2, [pc, #72]	; (800184c <HAL_TIM_Base_MspInit+0x7c>)
 8001804:	4293      	cmp	r3, r2
 8001806:	d1fa      	bne.n	80017fe <HAL_TIM_Base_MspInit+0x2e>
 8001808:	4b0f      	ldr	r3, [pc, #60]	; (8001848 <HAL_TIM_Base_MspInit+0x78>)
 800180a:	4811      	ldr	r0, [pc, #68]	; (8001850 <HAL_TIM_Base_MspInit+0x80>)
 800180c:	699a      	ldr	r2, [r3, #24]
 800180e:	a904      	add	r1, sp, #16
 8001810:	f442 5200 	orr.w	r2, r2, #8192	; 0x2000
 8001814:	619a      	str	r2, [r3, #24]
 8001816:	699a      	ldr	r2, [r3, #24]
 8001818:	f402 5200 	and.w	r2, r2, #8192	; 0x2000
 800181c:	9202      	str	r2, [sp, #8]
 800181e:	9a02      	ldr	r2, [sp, #8]
 8001820:	699a      	ldr	r2, [r3, #24]
 8001822:	f042 0210 	orr.w	r2, r2, #16
 8001826:	619a      	str	r2, [r3, #24]
 8001828:	699b      	ldr	r3, [r3, #24]
 800182a:	f44f 7270 	mov.w	r2, #960	; 0x3c0
 800182e:	f003 0310 	and.w	r3, r3, #16
 8001832:	9303      	str	r3, [sp, #12]
 8001834:	9b03      	ldr	r3, [sp, #12]
 8001836:	2302      	movs	r3, #2
 8001838:	e9cd 2304 	strd	r2, r3, [sp, #16]
 800183c:	9307      	str	r3, [sp, #28]
 800183e:	f000 fc3d 	bl	80020bc <HAL_GPIO_Init>
 8001842:	e7dc      	b.n	80017fe <HAL_TIM_Base_MspInit+0x2e>
 8001844:	40012c00 	.word	0x40012c00
 8001848:	40021000 	.word	0x40021000
 800184c:	40013400 	.word	0x40013400
 8001850:	40011000 	.word	0x40011000

08001854 <HAL_TIM_Encoder_MspInit>:
 8001854:	b510      	push	{r4, lr}
 8001856:	4604      	mov	r4, r0
 8001858:	b08e      	sub	sp, #56	; 0x38
 800185a:	2210      	movs	r2, #16
 800185c:	2100      	movs	r1, #0
 800185e:	a80a      	add	r0, sp, #40	; 0x28
 8001860:	f003 fbb8 	bl	8004fd4 <memset>
 8001864:	6823      	ldr	r3, [r4, #0]
 8001866:	f1b3 4f80 	cmp.w	r3, #1073741824	; 0x40000000
 800186a:	d139      	bne.n	80018e0 <HAL_TIM_Encoder_MspInit+0x8c>
 800186c:	f503 3304 	add.w	r3, r3, #135168	; 0x21000
 8001870:	69da      	ldr	r2, [r3, #28]
 8001872:	2400      	movs	r4, #0
 8001874:	f042 0201 	orr.w	r2, r2, #1
 8001878:	61da      	str	r2, [r3, #28]
 800187a:	69da      	ldr	r2, [r3, #28]
 800187c:	4843      	ldr	r0, [pc, #268]	; (800198c <HAL_TIM_Encoder_MspInit+0x138>)
 800187e:	f002 0201 	and.w	r2, r2, #1
 8001882:	9201      	str	r2, [sp, #4]
 8001884:	9a01      	ldr	r2, [sp, #4]
 8001886:	699a      	ldr	r2, [r3, #24]
 8001888:	a90a      	add	r1, sp, #40	; 0x28
 800188a:	f042 0204 	orr.w	r2, r2, #4
 800188e:	619a      	str	r2, [r3, #24]
 8001890:	699a      	ldr	r2, [r3, #24]
 8001892:	f002 0204 	and.w	r2, r2, #4
 8001896:	9202      	str	r2, [sp, #8]
 8001898:	9a02      	ldr	r2, [sp, #8]
 800189a:	699a      	ldr	r2, [r3, #24]
 800189c:	f042 0208 	orr.w	r2, r2, #8
 80018a0:	619a      	str	r2, [r3, #24]
 80018a2:	699b      	ldr	r3, [r3, #24]
 80018a4:	940c      	str	r4, [sp, #48]	; 0x30
 80018a6:	f003 0308 	and.w	r3, r3, #8
 80018aa:	9303      	str	r3, [sp, #12]
 80018ac:	9b03      	ldr	r3, [sp, #12]
 80018ae:	f44f 4300 	mov.w	r3, #32768	; 0x8000
 80018b2:	e9cd 340a 	strd	r3, r4, [sp, #40]	; 0x28
 80018b6:	f000 fc01 	bl	80020bc <HAL_GPIO_Init>
 80018ba:	2308      	movs	r3, #8
 80018bc:	4834      	ldr	r0, [pc, #208]	; (8001990 <HAL_TIM_Encoder_MspInit+0x13c>)
 80018be:	a90a      	add	r1, sp, #40	; 0x28
 80018c0:	e9cd 340a 	strd	r3, r4, [sp, #40]	; 0x28
 80018c4:	940c      	str	r4, [sp, #48]	; 0x30
 80018c6:	f000 fbf9 	bl	80020bc <HAL_GPIO_Init>
 80018ca:	4a32      	ldr	r2, [pc, #200]	; (8001994 <HAL_TIM_Encoder_MspInit+0x140>)
 80018cc:	6853      	ldr	r3, [r2, #4]
 80018ce:	f423 7340 	bic.w	r3, r3, #768	; 0x300
 80018d2:	f043 63e0 	orr.w	r3, r3, #117440512	; 0x7000000
 80018d6:	f443 7380 	orr.w	r3, r3, #256	; 0x100
 80018da:	6053      	str	r3, [r2, #4]
 80018dc:	b00e      	add	sp, #56	; 0x38
 80018de:	bd10      	pop	{r4, pc}
 80018e0:	4a2d      	ldr	r2, [pc, #180]	; (8001998 <HAL_TIM_Encoder_MspInit+0x144>)
 80018e2:	4293      	cmp	r3, r2
 80018e4:	d11a      	bne.n	800191c <HAL_TIM_Encoder_MspInit+0xc8>
 80018e6:	4b2d      	ldr	r3, [pc, #180]	; (800199c <HAL_TIM_Encoder_MspInit+0x148>)
 80018e8:	69da      	ldr	r2, [r3, #28]
 80018ea:	f042 0202 	orr.w	r2, r2, #2
 80018ee:	61da      	str	r2, [r3, #28]
 80018f0:	69da      	ldr	r2, [r3, #28]
 80018f2:	f002 0202 	and.w	r2, r2, #2
 80018f6:	9204      	str	r2, [sp, #16]
 80018f8:	9a04      	ldr	r2, [sp, #16]
 80018fa:	699a      	ldr	r2, [r3, #24]
 80018fc:	f042 0204 	orr.w	r2, r2, #4
 8001900:	619a      	str	r2, [r3, #24]
 8001902:	699b      	ldr	r3, [r3, #24]
 8001904:	f003 0304 	and.w	r3, r3, #4
 8001908:	9305      	str	r3, [sp, #20]
 800190a:	9b05      	ldr	r3, [sp, #20]
 800190c:	23c0      	movs	r3, #192	; 0xc0
 800190e:	930a      	str	r3, [sp, #40]	; 0x28
 8001910:	2300      	movs	r3, #0
 8001912:	481e      	ldr	r0, [pc, #120]	; (800198c <HAL_TIM_Encoder_MspInit+0x138>)
 8001914:	e9cd 330b 	strd	r3, r3, [sp, #44]	; 0x2c
 8001918:	a90a      	add	r1, sp, #40	; 0x28
 800191a:	e01c      	b.n	8001956 <HAL_TIM_Encoder_MspInit+0x102>
 800191c:	4a20      	ldr	r2, [pc, #128]	; (80019a0 <HAL_TIM_Encoder_MspInit+0x14c>)
 800191e:	4293      	cmp	r3, r2
 8001920:	d11c      	bne.n	800195c <HAL_TIM_Encoder_MspInit+0x108>
 8001922:	4b1e      	ldr	r3, [pc, #120]	; (800199c <HAL_TIM_Encoder_MspInit+0x148>)
 8001924:	481a      	ldr	r0, [pc, #104]	; (8001990 <HAL_TIM_Encoder_MspInit+0x13c>)
 8001926:	69da      	ldr	r2, [r3, #28]
 8001928:	a90a      	add	r1, sp, #40	; 0x28
 800192a:	f042 0204 	orr.w	r2, r2, #4
 800192e:	61da      	str	r2, [r3, #28]
 8001930:	69da      	ldr	r2, [r3, #28]
 8001932:	f002 0204 	and.w	r2, r2, #4
 8001936:	9206      	str	r2, [sp, #24]
 8001938:	9a06      	ldr	r2, [sp, #24]
 800193a:	699a      	ldr	r2, [r3, #24]
 800193c:	f042 0208 	orr.w	r2, r2, #8
 8001940:	619a      	str	r2, [r3, #24]
 8001942:	699b      	ldr	r3, [r3, #24]
 8001944:	22c0      	movs	r2, #192	; 0xc0
 8001946:	f003 0308 	and.w	r3, r3, #8
 800194a:	9307      	str	r3, [sp, #28]
 800194c:	9b07      	ldr	r3, [sp, #28]
 800194e:	2300      	movs	r3, #0
 8001950:	e9cd 230a 	strd	r2, r3, [sp, #40]	; 0x28
 8001954:	930c      	str	r3, [sp, #48]	; 0x30
 8001956:	f000 fbb1 	bl	80020bc <HAL_GPIO_Init>
 800195a:	e7bf      	b.n	80018dc <HAL_TIM_Encoder_MspInit+0x88>
 800195c:	4a11      	ldr	r2, [pc, #68]	; (80019a4 <HAL_TIM_Encoder_MspInit+0x150>)
 800195e:	4293      	cmp	r3, r2
 8001960:	d1bc      	bne.n	80018dc <HAL_TIM_Encoder_MspInit+0x88>
 8001962:	4b0e      	ldr	r3, [pc, #56]	; (800199c <HAL_TIM_Encoder_MspInit+0x148>)
 8001964:	69da      	ldr	r2, [r3, #28]
 8001966:	f042 0208 	orr.w	r2, r2, #8
 800196a:	61da      	str	r2, [r3, #28]
 800196c:	69da      	ldr	r2, [r3, #28]
 800196e:	f002 0208 	and.w	r2, r2, #8
 8001972:	9208      	str	r2, [sp, #32]
 8001974:	9a08      	ldr	r2, [sp, #32]
 8001976:	699a      	ldr	r2, [r3, #24]
 8001978:	f042 0204 	orr.w	r2, r2, #4
 800197c:	619a      	str	r2, [r3, #24]
 800197e:	699b      	ldr	r3, [r3, #24]
 8001980:	f003 0304 	and.w	r3, r3, #4
 8001984:	9309      	str	r3, [sp, #36]	; 0x24
 8001986:	9b09      	ldr	r3, [sp, #36]	; 0x24
 8001988:	2303      	movs	r3, #3
 800198a:	e7c0      	b.n	800190e <HAL_TIM_Encoder_MspInit+0xba>
 800198c:	40010800 	.word	0x40010800
 8001990:	40010c00 	.word	0x40010c00
 8001994:	40010000 	.word	0x40010000
 8001998:	40000400 	.word	0x40000400
 800199c:	40021000 	.word	0x40021000
 80019a0:	40000800 	.word	0x40000800
 80019a4:	40000c00 	.word	0x40000c00

080019a8 <HAL_TIM_MspPostInit>:
 80019a8:	b510      	push	{r4, lr}
 80019aa:	4604      	mov	r4, r0
 80019ac:	b086      	sub	sp, #24
 80019ae:	2210      	movs	r2, #16
 80019b0:	2100      	movs	r1, #0
 80019b2:	a802      	add	r0, sp, #8
 80019b4:	f003 fb0e 	bl	8004fd4 <memset>
 80019b8:	6822      	ldr	r2, [r4, #0]
 80019ba:	4b10      	ldr	r3, [pc, #64]	; (80019fc <HAL_TIM_MspPostInit+0x54>)
 80019bc:	429a      	cmp	r2, r3
 80019be:	d11b      	bne.n	80019f8 <HAL_TIM_MspPostInit+0x50>
 80019c0:	f503 4364 	add.w	r3, r3, #58368	; 0xe400
 80019c4:	699a      	ldr	r2, [r3, #24]
 80019c6:	480e      	ldr	r0, [pc, #56]	; (8001a00 <HAL_TIM_MspPostInit+0x58>)
 80019c8:	f042 0240 	orr.w	r2, r2, #64	; 0x40
 80019cc:	619a      	str	r2, [r3, #24]
 80019ce:	699b      	ldr	r3, [r3, #24]
 80019d0:	f44f 4280 	mov.w	r2, #16384	; 0x4000
 80019d4:	f003 0340 	and.w	r3, r3, #64	; 0x40
 80019d8:	9301      	str	r3, [sp, #4]
 80019da:	9b01      	ldr	r3, [sp, #4]
 80019dc:	2302      	movs	r3, #2
 80019de:	a902      	add	r1, sp, #8
 80019e0:	e9cd 2302 	strd	r2, r3, [sp, #8]
 80019e4:	9305      	str	r3, [sp, #20]
 80019e6:	f000 fb69 	bl	80020bc <HAL_GPIO_Init>
 80019ea:	4a06      	ldr	r2, [pc, #24]	; (8001a04 <HAL_TIM_MspPostInit+0x5c>)
 80019ec:	6853      	ldr	r3, [r2, #4]
 80019ee:	f043 63e0 	orr.w	r3, r3, #117440512	; 0x7000000
 80019f2:	f043 03c0 	orr.w	r3, r3, #192	; 0xc0
 80019f6:	6053      	str	r3, [r2, #4]
 80019f8:	b006      	add	sp, #24
 80019fa:	bd10      	pop	{r4, pc}
 80019fc:	40012c00 	.word	0x40012c00
 8001a00:	40011800 	.word	0x40011800
 8001a04:	40010000 	.word	0x40010000

08001a08 <HAL_UART_MspInit>:
 8001a08:	b510      	push	{r4, lr}
 8001a0a:	4604      	mov	r4, r0
 8001a0c:	b086      	sub	sp, #24
 8001a0e:	2210      	movs	r2, #16
 8001a10:	2100      	movs	r1, #0
 8001a12:	a802      	add	r0, sp, #8
 8001a14:	f003 fade 	bl	8004fd4 <memset>
 8001a18:	6822      	ldr	r2, [r4, #0]
 8001a1a:	4b1f      	ldr	r3, [pc, #124]	; (8001a98 <HAL_UART_MspInit+0x90>)
 8001a1c:	429a      	cmp	r2, r3
 8001a1e:	d139      	bne.n	8001a94 <HAL_UART_MspInit+0x8c>
 8001a20:	f503 33e4 	add.w	r3, r3, #116736	; 0x1c800
 8001a24:	69da      	ldr	r2, [r3, #28]
 8001a26:	481d      	ldr	r0, [pc, #116]	; (8001a9c <HAL_UART_MspInit+0x94>)
 8001a28:	f442 2280 	orr.w	r2, r2, #262144	; 0x40000
 8001a2c:	61da      	str	r2, [r3, #28]
 8001a2e:	69da      	ldr	r2, [r3, #28]
 8001a30:	a902      	add	r1, sp, #8
 8001a32:	f402 2280 	and.w	r2, r2, #262144	; 0x40000
 8001a36:	9200      	str	r2, [sp, #0]
 8001a38:	9a00      	ldr	r2, [sp, #0]
 8001a3a:	699a      	ldr	r2, [r3, #24]
 8001a3c:	2400      	movs	r4, #0
 8001a3e:	f042 0210 	orr.w	r2, r2, #16
 8001a42:	619a      	str	r2, [r3, #24]
 8001a44:	699b      	ldr	r3, [r3, #24]
 8001a46:	f44f 6280 	mov.w	r2, #1024	; 0x400
 8001a4a:	f003 0310 	and.w	r3, r3, #16
 8001a4e:	9301      	str	r3, [sp, #4]
 8001a50:	9b01      	ldr	r3, [sp, #4]
 8001a52:	2302      	movs	r3, #2
 8001a54:	e9cd 2302 	strd	r2, r3, [sp, #8]
 8001a58:	2303      	movs	r3, #3
 8001a5a:	9305      	str	r3, [sp, #20]
 8001a5c:	f000 fb2e 	bl	80020bc <HAL_GPIO_Init>
 8001a60:	f44f 6300 	mov.w	r3, #2048	; 0x800
 8001a64:	480d      	ldr	r0, [pc, #52]	; (8001a9c <HAL_UART_MspInit+0x94>)
 8001a66:	a902      	add	r1, sp, #8
 8001a68:	e9cd 3402 	strd	r3, r4, [sp, #8]
 8001a6c:	9404      	str	r4, [sp, #16]
 8001a6e:	f000 fb25 	bl	80020bc <HAL_GPIO_Init>
 8001a72:	4a0b      	ldr	r2, [pc, #44]	; (8001aa0 <HAL_UART_MspInit+0x98>)
 8001a74:	2027      	movs	r0, #39	; 0x27
 8001a76:	6853      	ldr	r3, [r2, #4]
 8001a78:	2105      	movs	r1, #5
 8001a7a:	f023 0330 	bic.w	r3, r3, #48	; 0x30
 8001a7e:	f043 63e0 	orr.w	r3, r3, #117440512	; 0x7000000
 8001a82:	f043 0310 	orr.w	r3, r3, #16
 8001a86:	6053      	str	r3, [r2, #4]
 8001a88:	4622      	mov	r2, r4
 8001a8a:	f000 fa05 	bl	8001e98 <HAL_NVIC_SetPriority>
 8001a8e:	2027      	movs	r0, #39	; 0x27
 8001a90:	f000 fa34 	bl	8001efc <HAL_NVIC_EnableIRQ>
 8001a94:	b006      	add	sp, #24
 8001a96:	bd10      	pop	{r4, pc}
 8001a98:	40004800 	.word	0x40004800
 8001a9c:	40011000 	.word	0x40011000
 8001aa0:	40010000 	.word	0x40010000

08001aa4 <NMI_Handler>:
 8001aa4:	e7fe      	b.n	8001aa4 <NMI_Handler>

08001aa6 <HardFault_Handler>:
 8001aa6:	e7fe      	b.n	8001aa6 <HardFault_Handler>

08001aa8 <MemManage_Handler>:
 8001aa8:	e7fe      	b.n	8001aa8 <MemManage_Handler>

08001aaa <BusFault_Handler>:
 8001aaa:	e7fe      	b.n	8001aaa <BusFault_Handler>

08001aac <UsageFault_Handler>:
 8001aac:	e7fe      	b.n	8001aac <UsageFault_Handler>

08001aae <DebugMon_Handler>:
 8001aae:	4770      	bx	lr

08001ab0 <SysTick_Handler>:
 8001ab0:	b508      	push	{r3, lr}
 8001ab2:	f000 f88d 	bl	8001bd0 <HAL_IncTick>
 8001ab6:	f002 fdcd 	bl	8004654 <xTaskGetSchedulerState>
 8001aba:	2801      	cmp	r0, #1
 8001abc:	d003      	beq.n	8001ac6 <SysTick_Handler+0x16>
 8001abe:	e8bd 4008 	ldmia.w	sp!, {r3, lr}
 8001ac2:	f003 b8af 	b.w	8004c24 <xPortSysTickHandler>
 8001ac6:	bd08      	pop	{r3, pc}

08001ac8 <USART3_IRQHandler>:
 8001ac8:	4801      	ldr	r0, [pc, #4]	; (8001ad0 <USART3_IRQHandler+0x8>)
 8001aca:	f001 bc3b 	b.w	8003344 <HAL_UART_IRQHandler>
 8001ace:	bf00      	nop
 8001ad0:	20001a3c 	.word	0x20001a3c

08001ad4 <_sbrk>:
 8001ad4:	4b0b      	ldr	r3, [pc, #44]	; (8001b04 <_sbrk+0x30>)
 8001ad6:	4602      	mov	r2, r0
 8001ad8:	6819      	ldr	r1, [r3, #0]
 8001ada:	b510      	push	{r4, lr}
 8001adc:	b909      	cbnz	r1, 8001ae2 <_sbrk+0xe>
 8001ade:	490a      	ldr	r1, [pc, #40]	; (8001b08 <_sbrk+0x34>)
 8001ae0:	6019      	str	r1, [r3, #0]
 8001ae2:	6818      	ldr	r0, [r3, #0]
 8001ae4:	4909      	ldr	r1, [pc, #36]	; (8001b0c <_sbrk+0x38>)
 8001ae6:	4c0a      	ldr	r4, [pc, #40]	; (8001b10 <_sbrk+0x3c>)
 8001ae8:	4402      	add	r2, r0
 8001aea:	1b09      	subs	r1, r1, r4
 8001aec:	428a      	cmp	r2, r1
 8001aee:	d906      	bls.n	8001afe <_sbrk+0x2a>
 8001af0:	f003 fa38 	bl	8004f64 <__errno>
 8001af4:	230c      	movs	r3, #12
 8001af6:	6003      	str	r3, [r0, #0]
 8001af8:	f04f 30ff 	mov.w	r0, #4294967295
 8001afc:	bd10      	pop	{r4, pc}
 8001afe:	601a      	str	r2, [r3, #0]
 8001b00:	e7fc      	b.n	8001afc <_sbrk+0x28>
 8001b02:	bf00      	nop
 8001b04:	20000094 	.word	0x20000094
 8001b08:	20002040 	.word	0x20002040
 8001b0c:	20010000 	.word	0x20010000
 8001b10:	00000400 	.word	0x00000400

08001b14 <SystemInit>:
 8001b14:	4770      	bx	lr
	...

08001b18 <Reset_Handler>:
 8001b18:	480c      	ldr	r0, [pc, #48]	; (8001b4c <LoopFillZerobss+0x12>)
 8001b1a:	490d      	ldr	r1, [pc, #52]	; (8001b50 <LoopFillZerobss+0x16>)
 8001b1c:	4a0d      	ldr	r2, [pc, #52]	; (8001b54 <LoopFillZerobss+0x1a>)
 8001b1e:	2300      	movs	r3, #0
 8001b20:	e002      	b.n	8001b28 <LoopCopyDataInit>

08001b22 <CopyDataInit>:
 8001b22:	58d4      	ldr	r4, [r2, r3]
 8001b24:	50c4      	str	r4, [r0, r3]
 8001b26:	3304      	adds	r3, #4

08001b28 <LoopCopyDataInit>:
 8001b28:	18c4      	adds	r4, r0, r3
 8001b2a:	428c      	cmp	r4, r1
 8001b2c:	d3f9      	bcc.n	8001b22 <CopyDataInit>
 8001b2e:	4a0a      	ldr	r2, [pc, #40]	; (8001b58 <LoopFillZerobss+0x1e>)
 8001b30:	4c0a      	ldr	r4, [pc, #40]	; (8001b5c <LoopFillZerobss+0x22>)
 8001b32:	2300      	movs	r3, #0
 8001b34:	e001      	b.n	8001b3a <LoopFillZerobss>

08001b36 <FillZerobss>:
 8001b36:	6013      	str	r3, [r2, #0]
 8001b38:	3204      	adds	r2, #4

08001b3a <LoopFillZerobss>:
 8001b3a:	42a2      	cmp	r2, r4
 8001b3c:	d3fb      	bcc.n	8001b36 <FillZerobss>
 8001b3e:	f7ff ffe9 	bl	8001b14 <SystemInit>
 8001b42:	f003 fa15 	bl	8004f70 <__libc_init_array>
 8001b46:	f7ff f9fb 	bl	8000f40 <main>
 8001b4a:	4770      	bx	lr
 8001b4c:	20000000 	.word	0x20000000
 8001b50:	20000074 	.word	0x20000074
 8001b54:	08006660 	.word	0x08006660
 8001b58:	20000074 	.word	0x20000074
 8001b5c:	20002040 	.word	0x20002040

08001b60 <ADC1_2_IRQHandler>:
 8001b60:	e7fe      	b.n	8001b60 <ADC1_2_IRQHandler>
	...

08001b64 <HAL_InitTick>:
 8001b64:	b538      	push	{r3, r4, r5, lr}
 8001b66:	4b0e      	ldr	r3, [pc, #56]	; (8001ba0 <HAL_InitTick+0x3c>)
 8001b68:	4605      	mov	r5, r0
 8001b6a:	7818      	ldrb	r0, [r3, #0]
 8001b6c:	f44f 737a 	mov.w	r3, #1000	; 0x3e8
 8001b70:	fbb3 f3f0 	udiv	r3, r3, r0
 8001b74:	4a0b      	ldr	r2, [pc, #44]	; (8001ba4 <HAL_InitTick+0x40>)
 8001b76:	6810      	ldr	r0, [r2, #0]
 8001b78:	fbb0 f0f3 	udiv	r0, r0, r3
 8001b7c:	f000 f9cc 	bl	8001f18 <HAL_SYSTICK_Config>
 8001b80:	4604      	mov	r4, r0
 8001b82:	b958      	cbnz	r0, 8001b9c <HAL_InitTick+0x38>
 8001b84:	2d0f      	cmp	r5, #15
 8001b86:	d809      	bhi.n	8001b9c <HAL_InitTick+0x38>
 8001b88:	4602      	mov	r2, r0
 8001b8a:	4629      	mov	r1, r5
 8001b8c:	f04f 30ff 	mov.w	r0, #4294967295
 8001b90:	f000 f982 	bl	8001e98 <HAL_NVIC_SetPriority>
 8001b94:	4620      	mov	r0, r4
 8001b96:	4b04      	ldr	r3, [pc, #16]	; (8001ba8 <HAL_InitTick+0x44>)
 8001b98:	601d      	str	r5, [r3, #0]
 8001b9a:	bd38      	pop	{r3, r4, r5, pc}
 8001b9c:	2001      	movs	r0, #1
 8001b9e:	e7fc      	b.n	8001b9a <HAL_InitTick+0x36>
 8001ba0:	20000004 	.word	0x20000004
 8001ba4:	20000000 	.word	0x20000000
 8001ba8:	20000008 	.word	0x20000008

08001bac <HAL_Init>:
 8001bac:	4a07      	ldr	r2, [pc, #28]	; (8001bcc <HAL_Init+0x20>)
 8001bae:	b508      	push	{r3, lr}
 8001bb0:	6813      	ldr	r3, [r2, #0]
 8001bb2:	2003      	movs	r0, #3
 8001bb4:	f043 0310 	orr.w	r3, r3, #16
 8001bb8:	6013      	str	r3, [r2, #0]
 8001bba:	f000 f95b 	bl	8001e74 <HAL_NVIC_SetPriorityGrouping>
 8001bbe:	200f      	movs	r0, #15
 8001bc0:	f7ff ffd0 	bl	8001b64 <HAL_InitTick>
 8001bc4:	f7ff fdae 	bl	8001724 <HAL_MspInit>
 8001bc8:	2000      	movs	r0, #0
 8001bca:	bd08      	pop	{r3, pc}
 8001bcc:	40022000 	.word	0x40022000

08001bd0 <HAL_IncTick>:
 8001bd0:	4a03      	ldr	r2, [pc, #12]	; (8001be0 <HAL_IncTick+0x10>)
 8001bd2:	4b04      	ldr	r3, [pc, #16]	; (8001be4 <HAL_IncTick+0x14>)
 8001bd4:	6811      	ldr	r1, [r2, #0]
 8001bd6:	781b      	ldrb	r3, [r3, #0]
 8001bd8:	440b      	add	r3, r1
 8001bda:	6013      	str	r3, [r2, #0]
 8001bdc:	4770      	bx	lr
 8001bde:	bf00      	nop
 8001be0:	20001fec 	.word	0x20001fec
 8001be4:	20000004 	.word	0x20000004

08001be8 <HAL_GetTick>:
 8001be8:	4b01      	ldr	r3, [pc, #4]	; (8001bf0 <HAL_GetTick+0x8>)
 8001bea:	6818      	ldr	r0, [r3, #0]
 8001bec:	4770      	bx	lr
 8001bee:	bf00      	nop
 8001bf0:	20001fec 	.word	0x20001fec

08001bf4 <HAL_Delay>:
 8001bf4:	b538      	push	{r3, r4, r5, lr}
 8001bf6:	4604      	mov	r4, r0
 8001bf8:	f7ff fff6 	bl	8001be8 <HAL_GetTick>
 8001bfc:	4605      	mov	r5, r0
 8001bfe:	1c63      	adds	r3, r4, #1
 8001c00:	bf1e      	ittt	ne
 8001c02:	4b04      	ldrne	r3, [pc, #16]	; (8001c14 <HAL_Delay+0x20>)
 8001c04:	781b      	ldrbne	r3, [r3, #0]
 8001c06:	18e4      	addne	r4, r4, r3
 8001c08:	f7ff ffee 	bl	8001be8 <HAL_GetTick>
 8001c0c:	1b43      	subs	r3, r0, r5
 8001c0e:	42a3      	cmp	r3, r4
 8001c10:	d3fa      	bcc.n	8001c08 <HAL_Delay+0x14>
 8001c12:	bd38      	pop	{r3, r4, r5, pc}
 8001c14:	20000004 	.word	0x20000004

08001c18 <HAL_ADC_ConfigChannel>:
 8001c18:	2300      	movs	r3, #0
 8001c1a:	b573      	push	{r0, r1, r4, r5, r6, lr}
 8001c1c:	9301      	str	r3, [sp, #4]
 8001c1e:	f890 3024 	ldrb.w	r3, [r0, #36]	; 0x24
 8001c22:	4604      	mov	r4, r0
 8001c24:	2b01      	cmp	r3, #1
 8001c26:	d06c      	beq.n	8001d02 <HAL_ADC_ConfigChannel+0xea>
 8001c28:	2301      	movs	r3, #1
 8001c2a:	f880 3024 	strb.w	r3, [r0, #36]	; 0x24
 8001c2e:	684d      	ldr	r5, [r1, #4]
 8001c30:	6802      	ldr	r2, [r0, #0]
 8001c32:	2d06      	cmp	r5, #6
 8001c34:	6808      	ldr	r0, [r1, #0]
 8001c36:	eb05 0385 	add.w	r3, r5, r5, lsl #2
 8001c3a:	d822      	bhi.n	8001c82 <HAL_ADC_ConfigChannel+0x6a>
 8001c3c:	261f      	movs	r6, #31
 8001c3e:	6b55      	ldr	r5, [r2, #52]	; 0x34
 8001c40:	3b05      	subs	r3, #5
 8001c42:	409e      	lsls	r6, r3
 8001c44:	ea25 0506 	bic.w	r5, r5, r6
 8001c48:	fa00 f303 	lsl.w	r3, r0, r3
 8001c4c:	432b      	orrs	r3, r5
 8001c4e:	6353      	str	r3, [r2, #52]	; 0x34
 8001c50:	2809      	cmp	r0, #9
 8001c52:	688b      	ldr	r3, [r1, #8]
 8001c54:	eb00 0540 	add.w	r5, r0, r0, lsl #1
 8001c58:	f04f 0107 	mov.w	r1, #7
 8001c5c:	d929      	bls.n	8001cb2 <HAL_ADC_ConfigChannel+0x9a>
 8001c5e:	68d6      	ldr	r6, [r2, #12]
 8001c60:	3d1e      	subs	r5, #30
 8001c62:	40a9      	lsls	r1, r5
 8001c64:	ea26 0101 	bic.w	r1, r6, r1
 8001c68:	40ab      	lsls	r3, r5
 8001c6a:	430b      	orrs	r3, r1
 8001c6c:	60d3      	str	r3, [r2, #12]
 8001c6e:	f1a0 0310 	sub.w	r3, r0, #16
 8001c72:	2b01      	cmp	r3, #1
 8001c74:	d925      	bls.n	8001cc2 <HAL_ADC_ConfigChannel+0xaa>
 8001c76:	2000      	movs	r0, #0
 8001c78:	2300      	movs	r3, #0
 8001c7a:	f884 3024 	strb.w	r3, [r4, #36]	; 0x24
 8001c7e:	b002      	add	sp, #8
 8001c80:	bd70      	pop	{r4, r5, r6, pc}
 8001c82:	2d0c      	cmp	r5, #12
 8001c84:	f04f 051f 	mov.w	r5, #31
 8001c88:	d809      	bhi.n	8001c9e <HAL_ADC_ConfigChannel+0x86>
 8001c8a:	6b16      	ldr	r6, [r2, #48]	; 0x30
 8001c8c:	3b23      	subs	r3, #35	; 0x23
 8001c8e:	409d      	lsls	r5, r3
 8001c90:	ea26 0505 	bic.w	r5, r6, r5
 8001c94:	fa00 f303 	lsl.w	r3, r0, r3
 8001c98:	432b      	orrs	r3, r5
 8001c9a:	6313      	str	r3, [r2, #48]	; 0x30
 8001c9c:	e7d8      	b.n	8001c50 <HAL_ADC_ConfigChannel+0x38>
 8001c9e:	6ad6      	ldr	r6, [r2, #44]	; 0x2c
 8001ca0:	3b41      	subs	r3, #65	; 0x41
 8001ca2:	409d      	lsls	r5, r3
 8001ca4:	ea26 0505 	bic.w	r5, r6, r5
 8001ca8:	fa00 f303 	lsl.w	r3, r0, r3
 8001cac:	432b      	orrs	r3, r5
 8001cae:	62d3      	str	r3, [r2, #44]	; 0x2c
 8001cb0:	e7ce      	b.n	8001c50 <HAL_ADC_ConfigChannel+0x38>
 8001cb2:	6910      	ldr	r0, [r2, #16]
 8001cb4:	40a9      	lsls	r1, r5
 8001cb6:	ea20 0101 	bic.w	r1, r0, r1
 8001cba:	40ab      	lsls	r3, r5
 8001cbc:	430b      	orrs	r3, r1
 8001cbe:	6113      	str	r3, [r2, #16]
 8001cc0:	e7d9      	b.n	8001c76 <HAL_ADC_ConfigChannel+0x5e>
 8001cc2:	4b11      	ldr	r3, [pc, #68]	; (8001d08 <HAL_ADC_ConfigChannel+0xf0>)
 8001cc4:	429a      	cmp	r2, r3
 8001cc6:	d116      	bne.n	8001cf6 <HAL_ADC_ConfigChannel+0xde>
 8001cc8:	6893      	ldr	r3, [r2, #8]
 8001cca:	021b      	lsls	r3, r3, #8
 8001ccc:	d4d3      	bmi.n	8001c76 <HAL_ADC_ConfigChannel+0x5e>
 8001cce:	6893      	ldr	r3, [r2, #8]
 8001cd0:	2810      	cmp	r0, #16
 8001cd2:	f443 0300 	orr.w	r3, r3, #8388608	; 0x800000
 8001cd6:	6093      	str	r3, [r2, #8]
 8001cd8:	d1cd      	bne.n	8001c76 <HAL_ADC_ConfigChannel+0x5e>
 8001cda:	4b0c      	ldr	r3, [pc, #48]	; (8001d0c <HAL_ADC_ConfigChannel+0xf4>)
 8001cdc:	4a0c      	ldr	r2, [pc, #48]	; (8001d10 <HAL_ADC_ConfigChannel+0xf8>)
 8001cde:	681b      	ldr	r3, [r3, #0]
 8001ce0:	fbb3 f2f2 	udiv	r2, r3, r2
 8001ce4:	230a      	movs	r3, #10
 8001ce6:	4353      	muls	r3, r2
 8001ce8:	9301      	str	r3, [sp, #4]
 8001cea:	9b01      	ldr	r3, [sp, #4]
 8001cec:	2b00      	cmp	r3, #0
 8001cee:	d0c2      	beq.n	8001c76 <HAL_ADC_ConfigChannel+0x5e>
 8001cf0:	9b01      	ldr	r3, [sp, #4]
 8001cf2:	3b01      	subs	r3, #1
 8001cf4:	e7f8      	b.n	8001ce8 <HAL_ADC_ConfigChannel+0xd0>
 8001cf6:	6aa3      	ldr	r3, [r4, #40]	; 0x28
 8001cf8:	2001      	movs	r0, #1
 8001cfa:	f043 0320 	orr.w	r3, r3, #32
 8001cfe:	62a3      	str	r3, [r4, #40]	; 0x28
 8001d00:	e7ba      	b.n	8001c78 <HAL_ADC_ConfigChannel+0x60>
 8001d02:	2002      	movs	r0, #2
 8001d04:	e7bb      	b.n	8001c7e <HAL_ADC_ConfigChannel+0x66>
 8001d06:	bf00      	nop
 8001d08:	40012400 	.word	0x40012400
 8001d0c:	20000000 	.word	0x20000000
 8001d10:	000f4240 	.word	0x000f4240

08001d14 <ADC_ConversionStop_Disable>:
 8001d14:	b538      	push	{r3, r4, r5, lr}
 8001d16:	6803      	ldr	r3, [r0, #0]
 8001d18:	4604      	mov	r4, r0
 8001d1a:	689a      	ldr	r2, [r3, #8]
 8001d1c:	07d1      	lsls	r1, r2, #31
 8001d1e:	d401      	bmi.n	8001d24 <ADC_ConversionStop_Disable+0x10>
 8001d20:	2000      	movs	r0, #0
 8001d22:	bd38      	pop	{r3, r4, r5, pc}
 8001d24:	689a      	ldr	r2, [r3, #8]
 8001d26:	f022 0201 	bic.w	r2, r2, #1
 8001d2a:	609a      	str	r2, [r3, #8]
 8001d2c:	f7ff ff5c 	bl	8001be8 <HAL_GetTick>
 8001d30:	4605      	mov	r5, r0
 8001d32:	6823      	ldr	r3, [r4, #0]
 8001d34:	689b      	ldr	r3, [r3, #8]
 8001d36:	07db      	lsls	r3, r3, #31
 8001d38:	d5f2      	bpl.n	8001d20 <ADC_ConversionStop_Disable+0xc>
 8001d3a:	f7ff ff55 	bl	8001be8 <HAL_GetTick>
 8001d3e:	1b40      	subs	r0, r0, r5
 8001d40:	2802      	cmp	r0, #2
 8001d42:	d9f6      	bls.n	8001d32 <ADC_ConversionStop_Disable+0x1e>
 8001d44:	6823      	ldr	r3, [r4, #0]
 8001d46:	689b      	ldr	r3, [r3, #8]
 8001d48:	07da      	lsls	r2, r3, #31
 8001d4a:	d5f2      	bpl.n	8001d32 <ADC_ConversionStop_Disable+0x1e>
 8001d4c:	6aa3      	ldr	r3, [r4, #40]	; 0x28
 8001d4e:	2001      	movs	r0, #1
 8001d50:	f043 0310 	orr.w	r3, r3, #16
 8001d54:	62a3      	str	r3, [r4, #40]	; 0x28
 8001d56:	6ae3      	ldr	r3, [r4, #44]	; 0x2c
 8001d58:	f043 0301 	orr.w	r3, r3, #1
 8001d5c:	62e3      	str	r3, [r4, #44]	; 0x2c
 8001d5e:	e7e0      	b.n	8001d22 <ADC_ConversionStop_Disable+0xe>

08001d60 <HAL_ADC_Init>:
 8001d60:	b5f8      	push	{r3, r4, r5, r6, r7, lr}
 8001d62:	4604      	mov	r4, r0
 8001d64:	2800      	cmp	r0, #0
 8001d66:	d077      	beq.n	8001e58 <HAL_ADC_Init+0xf8>
 8001d68:	6a83      	ldr	r3, [r0, #40]	; 0x28
 8001d6a:	b923      	cbnz	r3, 8001d76 <HAL_ADC_Init+0x16>
 8001d6c:	62c3      	str	r3, [r0, #44]	; 0x2c
 8001d6e:	f880 3024 	strb.w	r3, [r0, #36]	; 0x24
 8001d72:	f7ff fcff 	bl	8001774 <HAL_ADC_MspInit>
 8001d76:	4620      	mov	r0, r4
 8001d78:	f7ff ffcc 	bl	8001d14 <ADC_ConversionStop_Disable>
 8001d7c:	6aa3      	ldr	r3, [r4, #40]	; 0x28
 8001d7e:	f013 0310 	ands.w	r3, r3, #16
 8001d82:	d16b      	bne.n	8001e5c <HAL_ADC_Init+0xfc>
 8001d84:	2800      	cmp	r0, #0
 8001d86:	d169      	bne.n	8001e5c <HAL_ADC_Init+0xfc>
 8001d88:	6aa2      	ldr	r2, [r4, #40]	; 0x28
 8001d8a:	4e37      	ldr	r6, [pc, #220]	; (8001e68 <HAL_ADC_Init+0x108>)
 8001d8c:	f422 5288 	bic.w	r2, r2, #4352	; 0x1100
 8001d90:	f022 0202 	bic.w	r2, r2, #2
 8001d94:	f042 0202 	orr.w	r2, r2, #2
 8001d98:	62a2      	str	r2, [r4, #40]	; 0x28
 8001d9a:	e9d4 2100 	ldrd	r2, r1, [r4]
 8001d9e:	42b2      	cmp	r2, r6
 8001da0:	69e5      	ldr	r5, [r4, #28]
 8001da2:	d104      	bne.n	8001dae <HAL_ADC_Init+0x4e>
 8001da4:	f5b5 2f40 	cmp.w	r5, #786432	; 0xc0000
 8001da8:	bf08      	it	eq
 8001daa:	f44f 2500 	moveq.w	r5, #524288	; 0x80000
 8001dae:	7b26      	ldrb	r6, [r4, #12]
 8001db0:	ea41 0146 	orr.w	r1, r1, r6, lsl #1
 8001db4:	4329      	orrs	r1, r5
 8001db6:	68a5      	ldr	r5, [r4, #8]
 8001db8:	f5b5 7f80 	cmp.w	r5, #256	; 0x100
 8001dbc:	d037      	beq.n	8001e2e <HAL_ADC_Init+0xce>
 8001dbe:	2d01      	cmp	r5, #1
 8001dc0:	bf0c      	ite	eq
 8001dc2:	f44f 7c80 	moveq.w	ip, #256	; 0x100
 8001dc6:	f04f 0c00 	movne.w	ip, #0
 8001dca:	7d27      	ldrb	r7, [r4, #20]
 8001dcc:	2f01      	cmp	r7, #1
 8001dce:	d106      	bne.n	8001dde <HAL_ADC_Init+0x7e>
 8001dd0:	bb7e      	cbnz	r6, 8001e32 <HAL_ADC_Init+0xd2>
 8001dd2:	69a7      	ldr	r7, [r4, #24]
 8001dd4:	3f01      	subs	r7, #1
 8001dd6:	ea4c 3647 	orr.w	r6, ip, r7, lsl #13
 8001dda:	f446 6c00 	orr.w	ip, r6, #2048	; 0x800
 8001dde:	6856      	ldr	r6, [r2, #4]
 8001de0:	f5b5 7f80 	cmp.w	r5, #256	; 0x100
 8001de4:	f426 4669 	bic.w	r6, r6, #59648	; 0xe900
 8001de8:	ea46 060c 	orr.w	r6, r6, ip
 8001dec:	6056      	str	r6, [r2, #4]
 8001dee:	6897      	ldr	r7, [r2, #8]
 8001df0:	4e1e      	ldr	r6, [pc, #120]	; (8001e6c <HAL_ADC_Init+0x10c>)
 8001df2:	ea06 0607 	and.w	r6, r6, r7
 8001df6:	ea46 0601 	orr.w	r6, r6, r1
 8001dfa:	6096      	str	r6, [r2, #8]
 8001dfc:	d001      	beq.n	8001e02 <HAL_ADC_Init+0xa2>
 8001dfe:	2d01      	cmp	r5, #1
 8001e00:	d102      	bne.n	8001e08 <HAL_ADC_Init+0xa8>
 8001e02:	6923      	ldr	r3, [r4, #16]
 8001e04:	3b01      	subs	r3, #1
 8001e06:	051b      	lsls	r3, r3, #20
 8001e08:	6ad5      	ldr	r5, [r2, #44]	; 0x2c
 8001e0a:	f425 0570 	bic.w	r5, r5, #15728640	; 0xf00000
 8001e0e:	432b      	orrs	r3, r5
 8001e10:	62d3      	str	r3, [r2, #44]	; 0x2c
 8001e12:	6892      	ldr	r2, [r2, #8]
 8001e14:	4b16      	ldr	r3, [pc, #88]	; (8001e70 <HAL_ADC_Init+0x110>)
 8001e16:	4013      	ands	r3, r2
 8001e18:	4299      	cmp	r1, r3
 8001e1a:	d113      	bne.n	8001e44 <HAL_ADC_Init+0xe4>
 8001e1c:	2300      	movs	r3, #0
 8001e1e:	62e3      	str	r3, [r4, #44]	; 0x2c
 8001e20:	6aa3      	ldr	r3, [r4, #40]	; 0x28
 8001e22:	f023 0303 	bic.w	r3, r3, #3
 8001e26:	f043 0301 	orr.w	r3, r3, #1
 8001e2a:	62a3      	str	r3, [r4, #40]	; 0x28
 8001e2c:	bdf8      	pop	{r3, r4, r5, r6, r7, pc}
 8001e2e:	46ac      	mov	ip, r5
 8001e30:	e7cb      	b.n	8001dca <HAL_ADC_Init+0x6a>
 8001e32:	6aa6      	ldr	r6, [r4, #40]	; 0x28
 8001e34:	f046 0620 	orr.w	r6, r6, #32
 8001e38:	62a6      	str	r6, [r4, #40]	; 0x28
 8001e3a:	6ae6      	ldr	r6, [r4, #44]	; 0x2c
 8001e3c:	f046 0601 	orr.w	r6, r6, #1
 8001e40:	62e6      	str	r6, [r4, #44]	; 0x2c
 8001e42:	e7cc      	b.n	8001dde <HAL_ADC_Init+0x7e>
 8001e44:	6aa3      	ldr	r3, [r4, #40]	; 0x28
 8001e46:	f023 0312 	bic.w	r3, r3, #18
 8001e4a:	f043 0310 	orr.w	r3, r3, #16
 8001e4e:	62a3      	str	r3, [r4, #40]	; 0x28
 8001e50:	6ae3      	ldr	r3, [r4, #44]	; 0x2c
 8001e52:	f043 0301 	orr.w	r3, r3, #1
 8001e56:	62e3      	str	r3, [r4, #44]	; 0x2c
 8001e58:	2001      	movs	r0, #1
 8001e5a:	e7e7      	b.n	8001e2c <HAL_ADC_Init+0xcc>
 8001e5c:	6aa3      	ldr	r3, [r4, #40]	; 0x28
 8001e5e:	f043 0310 	orr.w	r3, r3, #16
 8001e62:	62a3      	str	r3, [r4, #40]	; 0x28
 8001e64:	e7f8      	b.n	8001e58 <HAL_ADC_Init+0xf8>
 8001e66:	bf00      	nop
 8001e68:	40013c00 	.word	0x40013c00
 8001e6c:	ffe1f7fd 	.word	0xffe1f7fd
 8001e70:	ff1f0efe 	.word	0xff1f0efe

08001e74 <HAL_NVIC_SetPriorityGrouping>:
 8001e74:	4907      	ldr	r1, [pc, #28]	; (8001e94 <HAL_NVIC_SetPriorityGrouping+0x20>)
 8001e76:	0203      	lsls	r3, r0, #8
 8001e78:	68ca      	ldr	r2, [r1, #12]
 8001e7a:	f403 63e0 	and.w	r3, r3, #1792	; 0x700
 8001e7e:	f422 62e0 	bic.w	r2, r2, #1792	; 0x700
 8001e82:	0412      	lsls	r2, r2, #16
 8001e84:	0c12      	lsrs	r2, r2, #16
 8001e86:	4313      	orrs	r3, r2
 8001e88:	f043 63bf 	orr.w	r3, r3, #100139008	; 0x5f80000
 8001e8c:	f443 3300 	orr.w	r3, r3, #131072	; 0x20000
 8001e90:	60cb      	str	r3, [r1, #12]
 8001e92:	4770      	bx	lr
 8001e94:	e000ed00 	.word	0xe000ed00

08001e98 <HAL_NVIC_SetPriority>:
 8001e98:	4b16      	ldr	r3, [pc, #88]	; (8001ef4 <HAL_NVIC_SetPriority+0x5c>)
 8001e9a:	b530      	push	{r4, r5, lr}
 8001e9c:	68dc      	ldr	r4, [r3, #12]
 8001e9e:	f3c4 2402 	ubfx	r4, r4, #8, #3
 8001ea2:	f1c4 0307 	rsb	r3, r4, #7
 8001ea6:	1d25      	adds	r5, r4, #4
 8001ea8:	2b04      	cmp	r3, #4
 8001eaa:	bf28      	it	cs
 8001eac:	2304      	movcs	r3, #4
 8001eae:	2d06      	cmp	r5, #6
 8001eb0:	f04f 35ff 	mov.w	r5, #4294967295
 8001eb4:	bf98      	it	ls
 8001eb6:	2400      	movls	r4, #0
 8001eb8:	fa05 f303 	lsl.w	r3, r5, r3
 8001ebc:	bf88      	it	hi
 8001ebe:	3c03      	subhi	r4, #3
 8001ec0:	ea21 0303 	bic.w	r3, r1, r3
 8001ec4:	40a3      	lsls	r3, r4
 8001ec6:	fa05 f404 	lsl.w	r4, r5, r4
 8001eca:	ea22 0204 	bic.w	r2, r2, r4
 8001ece:	2800      	cmp	r0, #0
 8001ed0:	ea43 0302 	orr.w	r3, r3, r2
 8001ed4:	bfac      	ite	ge
 8001ed6:	f100 4060 	addge.w	r0, r0, #3758096384	; 0xe0000000
 8001eda:	4a07      	ldrlt	r2, [pc, #28]	; (8001ef8 <HAL_NVIC_SetPriority+0x60>)
 8001edc:	ea4f 1303 	mov.w	r3, r3, lsl #4
 8001ee0:	b2db      	uxtb	r3, r3
 8001ee2:	bfab      	itete	ge
 8001ee4:	f500 4061 	addge.w	r0, r0, #57600	; 0xe100
 8001ee8:	f000 000f 	andlt.w	r0, r0, #15
 8001eec:	f880 3300 	strbge.w	r3, [r0, #768]	; 0x300
 8001ef0:	5413      	strblt	r3, [r2, r0]
 8001ef2:	bd30      	pop	{r4, r5, pc}
 8001ef4:	e000ed00 	.word	0xe000ed00
 8001ef8:	e000ed14 	.word	0xe000ed14

08001efc <HAL_NVIC_EnableIRQ>:
 8001efc:	2800      	cmp	r0, #0
 8001efe:	db08      	blt.n	8001f12 <HAL_NVIC_EnableIRQ+0x16>
 8001f00:	2301      	movs	r3, #1
 8001f02:	0942      	lsrs	r2, r0, #5
 8001f04:	f000 001f 	and.w	r0, r0, #31
 8001f08:	fa03 f000 	lsl.w	r0, r3, r0
 8001f0c:	4b01      	ldr	r3, [pc, #4]	; (8001f14 <HAL_NVIC_EnableIRQ+0x18>)
 8001f0e:	f843 0022 	str.w	r0, [r3, r2, lsl #2]
 8001f12:	4770      	bx	lr
 8001f14:	e000e100 	.word	0xe000e100

08001f18 <HAL_SYSTICK_Config>:
 8001f18:	3801      	subs	r0, #1
 8001f1a:	f1b0 7f80 	cmp.w	r0, #16777216	; 0x1000000
 8001f1e:	d20a      	bcs.n	8001f36 <HAL_SYSTICK_Config+0x1e>
 8001f20:	21f0      	movs	r1, #240	; 0xf0
 8001f22:	4b06      	ldr	r3, [pc, #24]	; (8001f3c <HAL_SYSTICK_Config+0x24>)
 8001f24:	4a06      	ldr	r2, [pc, #24]	; (8001f40 <HAL_SYSTICK_Config+0x28>)
 8001f26:	6058      	str	r0, [r3, #4]
 8001f28:	f882 1023 	strb.w	r1, [r2, #35]	; 0x23
 8001f2c:	2000      	movs	r0, #0
 8001f2e:	2207      	movs	r2, #7
 8001f30:	6098      	str	r0, [r3, #8]
 8001f32:	601a      	str	r2, [r3, #0]
 8001f34:	4770      	bx	lr
 8001f36:	2001      	movs	r0, #1
 8001f38:	4770      	bx	lr
 8001f3a:	bf00      	nop
 8001f3c:	e000e010 	.word	0xe000e010
 8001f40:	e000ed00 	.word	0xe000ed00

08001f44 <HAL_DMA_Abort>:
 8001f44:	f890 3021 	ldrb.w	r3, [r0, #33]	; 0x21
 8001f48:	2b02      	cmp	r3, #2
 8001f4a:	d006      	beq.n	8001f5a <HAL_DMA_Abort+0x16>
 8001f4c:	2304      	movs	r3, #4
 8001f4e:	6383      	str	r3, [r0, #56]	; 0x38
 8001f50:	2300      	movs	r3, #0
 8001f52:	f880 3020 	strb.w	r3, [r0, #32]
 8001f56:	2001      	movs	r0, #1
 8001f58:	4770      	bx	lr
 8001f5a:	6803      	ldr	r3, [r0, #0]
 8001f5c:	681a      	ldr	r2, [r3, #0]
 8001f5e:	f022 020e 	bic.w	r2, r2, #14
 8001f62:	601a      	str	r2, [r3, #0]
 8001f64:	681a      	ldr	r2, [r3, #0]
 8001f66:	f022 0201 	bic.w	r2, r2, #1
 8001f6a:	601a      	str	r2, [r3, #0]
 8001f6c:	2301      	movs	r3, #1
 8001f6e:	e9d0 210f 	ldrd	r2, r1, [r0, #60]	; 0x3c
 8001f72:	408b      	lsls	r3, r1
 8001f74:	6053      	str	r3, [r2, #4]
 8001f76:	f44f 7380 	mov.w	r3, #256	; 0x100
 8001f7a:	8403      	strh	r3, [r0, #32]
 8001f7c:	2000      	movs	r0, #0
 8001f7e:	4770      	bx	lr

08001f80 <HAL_DMA_Abort_IT>:
 8001f80:	b508      	push	{r3, lr}
 8001f82:	f890 3021 	ldrb.w	r3, [r0, #33]	; 0x21
 8001f86:	2b02      	cmp	r3, #2
 8001f88:	d003      	beq.n	8001f92 <HAL_DMA_Abort_IT+0x12>
 8001f8a:	2304      	movs	r3, #4
 8001f8c:	6383      	str	r3, [r0, #56]	; 0x38
 8001f8e:	2001      	movs	r0, #1
 8001f90:	bd08      	pop	{r3, pc}
 8001f92:	6803      	ldr	r3, [r0, #0]
 8001f94:	4943      	ldr	r1, [pc, #268]	; (80020a4 <HAL_DMA_Abort_IT+0x124>)
 8001f96:	681a      	ldr	r2, [r3, #0]
 8001f98:	f022 020e 	bic.w	r2, r2, #14
 8001f9c:	601a      	str	r2, [r3, #0]
 8001f9e:	681a      	ldr	r2, [r3, #0]
 8001fa0:	f022 0201 	bic.w	r2, r2, #1
 8001fa4:	601a      	str	r2, [r3, #0]
 8001fa6:	4a40      	ldr	r2, [pc, #256]	; (80020a8 <HAL_DMA_Abort_IT+0x128>)
 8001fa8:	4293      	cmp	r3, r2
 8001faa:	d941      	bls.n	8002030 <HAL_DMA_Abort_IT+0xb0>
 8001fac:	428b      	cmp	r3, r1
 8001fae:	d038      	beq.n	8002022 <HAL_DMA_Abort_IT+0xa2>
 8001fb0:	3114      	adds	r1, #20
 8001fb2:	428b      	cmp	r3, r1
 8001fb4:	d037      	beq.n	8002026 <HAL_DMA_Abort_IT+0xa6>
 8001fb6:	3114      	adds	r1, #20
 8001fb8:	428b      	cmp	r3, r1
 8001fba:	d036      	beq.n	800202a <HAL_DMA_Abort_IT+0xaa>
 8001fbc:	3114      	adds	r1, #20
 8001fbe:	428b      	cmp	r3, r1
 8001fc0:	d023      	beq.n	800200a <HAL_DMA_Abort_IT+0x8a>
 8001fc2:	3114      	adds	r1, #20
 8001fc4:	428b      	cmp	r3, r1
 8001fc6:	d023      	beq.n	8002010 <HAL_DMA_Abort_IT+0x90>
 8001fc8:	3114      	adds	r1, #20
 8001fca:	428b      	cmp	r3, r1
 8001fcc:	d023      	beq.n	8002016 <HAL_DMA_Abort_IT+0x96>
 8001fce:	4293      	cmp	r3, r2
 8001fd0:	d024      	beq.n	800201c <HAL_DMA_Abort_IT+0x9c>
 8001fd2:	f502 7262 	add.w	r2, r2, #904	; 0x388
 8001fd6:	4293      	cmp	r3, r2
 8001fd8:	d023      	beq.n	8002022 <HAL_DMA_Abort_IT+0xa2>
 8001fda:	3214      	adds	r2, #20
 8001fdc:	4293      	cmp	r3, r2
 8001fde:	d022      	beq.n	8002026 <HAL_DMA_Abort_IT+0xa6>
 8001fe0:	3214      	adds	r2, #20
 8001fe2:	4293      	cmp	r3, r2
 8001fe4:	d021      	beq.n	800202a <HAL_DMA_Abort_IT+0xaa>
 8001fe6:	3214      	adds	r2, #20
 8001fe8:	4293      	cmp	r3, r2
 8001fea:	bf14      	ite	ne
 8001fec:	f44f 3380 	movne.w	r3, #65536	; 0x10000
 8001ff0:	f44f 5380 	moveq.w	r3, #4096	; 0x1000
 8001ff4:	4a2d      	ldr	r2, [pc, #180]	; (80020ac <HAL_DMA_Abort_IT+0x12c>)
 8001ff6:	6053      	str	r3, [r2, #4]
 8001ff8:	f44f 7380 	mov.w	r3, #256	; 0x100
 8001ffc:	8403      	strh	r3, [r0, #32]
 8001ffe:	6b43      	ldr	r3, [r0, #52]	; 0x34
 8002000:	2b00      	cmp	r3, #0
 8002002:	d04d      	beq.n	80020a0 <HAL_DMA_Abort_IT+0x120>
 8002004:	4798      	blx	r3
 8002006:	2000      	movs	r0, #0
 8002008:	e7c2      	b.n	8001f90 <HAL_DMA_Abort_IT+0x10>
 800200a:	f44f 5380 	mov.w	r3, #4096	; 0x1000
 800200e:	e7f1      	b.n	8001ff4 <HAL_DMA_Abort_IT+0x74>
 8002010:	f44f 3380 	mov.w	r3, #65536	; 0x10000
 8002014:	e7ee      	b.n	8001ff4 <HAL_DMA_Abort_IT+0x74>
 8002016:	f44f 1380 	mov.w	r3, #1048576	; 0x100000
 800201a:	e7eb      	b.n	8001ff4 <HAL_DMA_Abort_IT+0x74>
 800201c:	f04f 7380 	mov.w	r3, #16777216	; 0x1000000
 8002020:	e7e8      	b.n	8001ff4 <HAL_DMA_Abort_IT+0x74>
 8002022:	2301      	movs	r3, #1
 8002024:	e7e6      	b.n	8001ff4 <HAL_DMA_Abort_IT+0x74>
 8002026:	2310      	movs	r3, #16
 8002028:	e7e4      	b.n	8001ff4 <HAL_DMA_Abort_IT+0x74>
 800202a:	f44f 7380 	mov.w	r3, #256	; 0x100
 800202e:	e7e1      	b.n	8001ff4 <HAL_DMA_Abort_IT+0x74>
 8002030:	428b      	cmp	r3, r1
 8002032:	d02e      	beq.n	8002092 <HAL_DMA_Abort_IT+0x112>
 8002034:	491e      	ldr	r1, [pc, #120]	; (80020b0 <HAL_DMA_Abort_IT+0x130>)
 8002036:	428b      	cmp	r3, r1
 8002038:	d02d      	beq.n	8002096 <HAL_DMA_Abort_IT+0x116>
 800203a:	3114      	adds	r1, #20
 800203c:	428b      	cmp	r3, r1
 800203e:	d02c      	beq.n	800209a <HAL_DMA_Abort_IT+0x11a>
 8002040:	3114      	adds	r1, #20
 8002042:	428b      	cmp	r3, r1
 8002044:	d019      	beq.n	800207a <HAL_DMA_Abort_IT+0xfa>
 8002046:	3114      	adds	r1, #20
 8002048:	428b      	cmp	r3, r1
 800204a:	d019      	beq.n	8002080 <HAL_DMA_Abort_IT+0x100>
 800204c:	3114      	adds	r1, #20
 800204e:	428b      	cmp	r3, r1
 8002050:	d019      	beq.n	8002086 <HAL_DMA_Abort_IT+0x106>
 8002052:	4293      	cmp	r3, r2
 8002054:	d01a      	beq.n	800208c <HAL_DMA_Abort_IT+0x10c>
 8002056:	4a17      	ldr	r2, [pc, #92]	; (80020b4 <HAL_DMA_Abort_IT+0x134>)
 8002058:	4293      	cmp	r3, r2
 800205a:	d01a      	beq.n	8002092 <HAL_DMA_Abort_IT+0x112>
 800205c:	3214      	adds	r2, #20
 800205e:	4293      	cmp	r3, r2
 8002060:	d019      	beq.n	8002096 <HAL_DMA_Abort_IT+0x116>
 8002062:	3214      	adds	r2, #20
 8002064:	4293      	cmp	r3, r2
 8002066:	d018      	beq.n	800209a <HAL_DMA_Abort_IT+0x11a>
 8002068:	3214      	adds	r2, #20
 800206a:	4293      	cmp	r3, r2
 800206c:	bf14      	ite	ne
 800206e:	f44f 3380 	movne.w	r3, #65536	; 0x10000
 8002072:	f44f 5380 	moveq.w	r3, #4096	; 0x1000
 8002076:	4a10      	ldr	r2, [pc, #64]	; (80020b8 <HAL_DMA_Abort_IT+0x138>)
 8002078:	e7bd      	b.n	8001ff6 <HAL_DMA_Abort_IT+0x76>
 800207a:	f44f 5380 	mov.w	r3, #4096	; 0x1000
 800207e:	e7fa      	b.n	8002076 <HAL_DMA_Abort_IT+0xf6>
 8002080:	f44f 3380 	mov.w	r3, #65536	; 0x10000
 8002084:	e7f7      	b.n	8002076 <HAL_DMA_Abort_IT+0xf6>
 8002086:	f44f 1380 	mov.w	r3, #1048576	; 0x100000
 800208a:	e7f4      	b.n	8002076 <HAL_DMA_Abort_IT+0xf6>
 800208c:	f04f 7380 	mov.w	r3, #16777216	; 0x1000000
 8002090:	e7f1      	b.n	8002076 <HAL_DMA_Abort_IT+0xf6>
 8002092:	2301      	movs	r3, #1
 8002094:	e7ef      	b.n	8002076 <HAL_DMA_Abort_IT+0xf6>
 8002096:	2310      	movs	r3, #16
 8002098:	e7ed      	b.n	8002076 <HAL_DMA_Abort_IT+0xf6>
 800209a:	f44f 7380 	mov.w	r3, #256	; 0x100
 800209e:	e7ea      	b.n	8002076 <HAL_DMA_Abort_IT+0xf6>
 80020a0:	4618      	mov	r0, r3
 80020a2:	e775      	b.n	8001f90 <HAL_DMA_Abort_IT+0x10>
 80020a4:	40020008 	.word	0x40020008
 80020a8:	40020080 	.word	0x40020080
 80020ac:	40020400 	.word	0x40020400
 80020b0:	4002001c 	.word	0x4002001c
 80020b4:	40020408 	.word	0x40020408
 80020b8:	40020000 	.word	0x40020000

080020bc <HAL_GPIO_Init>:
 80020bc:	e92d 4ff7 	stmdb	sp!, {r0, r1, r2, r4, r5, r6, r7, r8, r9, sl, fp, lr}
 80020c0:	2200      	movs	r2, #0
 80020c2:	4616      	mov	r6, r2
 80020c4:	4f6b      	ldr	r7, [pc, #428]	; (8002274 <HAL_GPIO_Init+0x1b8>)
 80020c6:	4b6c      	ldr	r3, [pc, #432]	; (8002278 <HAL_GPIO_Init+0x1bc>)
 80020c8:	f8df c1b4 	ldr.w	ip, [pc, #436]	; 8002280 <HAL_GPIO_Init+0x1c4>
 80020cc:	f8df e1b4 	ldr.w	lr, [pc, #436]	; 8002284 <HAL_GPIO_Init+0x1c8>
 80020d0:	680c      	ldr	r4, [r1, #0]
 80020d2:	fa34 f506 	lsrs.w	r5, r4, r6
 80020d6:	d102      	bne.n	80020de <HAL_GPIO_Init+0x22>
 80020d8:	b003      	add	sp, #12
 80020da:	e8bd 8ff0 	ldmia.w	sp!, {r4, r5, r6, r7, r8, r9, sl, fp, pc}
 80020de:	f04f 0801 	mov.w	r8, #1
 80020e2:	fa08 f806 	lsl.w	r8, r8, r6
 80020e6:	ea04 0508 	and.w	r5, r4, r8
 80020ea:	ea38 0404 	bics.w	r4, r8, r4
 80020ee:	f040 8082 	bne.w	80021f6 <HAL_GPIO_Init+0x13a>
 80020f2:	684c      	ldr	r4, [r1, #4]
 80020f4:	2c03      	cmp	r4, #3
 80020f6:	d807      	bhi.n	8002108 <HAL_GPIO_Init+0x4c>
 80020f8:	3c01      	subs	r4, #1
 80020fa:	2c02      	cmp	r4, #2
 80020fc:	f200 808d 	bhi.w	800221a <HAL_GPIO_Init+0x15e>
 8002100:	e8df f004 	tbb	[pc, r4]
 8002104:	a39e      	.short	0xa39e
 8002106:	a9          	.byte	0xa9
 8002107:	00          	.byte	0x00
 8002108:	2c12      	cmp	r4, #18
 800210a:	f000 80a1 	beq.w	8002250 <HAL_GPIO_Init+0x194>
 800210e:	d874      	bhi.n	80021fa <HAL_GPIO_Init+0x13e>
 8002110:	2c11      	cmp	r4, #17
 8002112:	f000 8097 	beq.w	8002244 <HAL_GPIO_Init+0x188>
 8002116:	2dff      	cmp	r5, #255	; 0xff
 8002118:	bf98      	it	ls
 800211a:	4682      	movls	sl, r0
 800211c:	f04f 090f 	mov.w	r9, #15
 8002120:	bf88      	it	hi
 8002122:	f100 0a04 	addhi.w	sl, r0, #4
 8002126:	ea4f 0486 	mov.w	r4, r6, lsl #2
 800212a:	f8da 8000 	ldr.w	r8, [sl]
 800212e:	bf88      	it	hi
 8002130:	3c20      	subhi	r4, #32
 8002132:	fa09 fb04 	lsl.w	fp, r9, r4
 8002136:	ea28 080b 	bic.w	r8, r8, fp
 800213a:	fa02 f404 	lsl.w	r4, r2, r4
 800213e:	ea48 0404 	orr.w	r4, r8, r4
 8002142:	f8ca 4000 	str.w	r4, [sl]
 8002146:	f8d1 a004 	ldr.w	sl, [r1, #4]
 800214a:	f01a 5f80 	tst.w	sl, #268435456	; 0x10000000
 800214e:	d052      	beq.n	80021f6 <HAL_GPIO_Init+0x13a>
 8002150:	69bc      	ldr	r4, [r7, #24]
 8002152:	f026 0803 	bic.w	r8, r6, #3
 8002156:	f044 0401 	orr.w	r4, r4, #1
 800215a:	61bc      	str	r4, [r7, #24]
 800215c:	69bc      	ldr	r4, [r7, #24]
 800215e:	f108 4880 	add.w	r8, r8, #1073741824	; 0x40000000
 8002162:	f004 0401 	and.w	r4, r4, #1
 8002166:	9401      	str	r4, [sp, #4]
 8002168:	f508 3880 	add.w	r8, r8, #65536	; 0x10000
 800216c:	f006 0b03 	and.w	fp, r6, #3
 8002170:	9c01      	ldr	r4, [sp, #4]
 8002172:	ea4f 0b8b 	mov.w	fp, fp, lsl #2
 8002176:	f8d8 4008 	ldr.w	r4, [r8, #8]
 800217a:	fa09 f90b 	lsl.w	r9, r9, fp
 800217e:	ea24 0909 	bic.w	r9, r4, r9
 8002182:	4c3e      	ldr	r4, [pc, #248]	; (800227c <HAL_GPIO_Init+0x1c0>)
 8002184:	42a0      	cmp	r0, r4
 8002186:	d06a      	beq.n	800225e <HAL_GPIO_Init+0x1a2>
 8002188:	f504 6480 	add.w	r4, r4, #1024	; 0x400
 800218c:	42a0      	cmp	r0, r4
 800218e:	d068      	beq.n	8002262 <HAL_GPIO_Init+0x1a6>
 8002190:	f504 6480 	add.w	r4, r4, #1024	; 0x400
 8002194:	42a0      	cmp	r0, r4
 8002196:	d066      	beq.n	8002266 <HAL_GPIO_Init+0x1aa>
 8002198:	f504 6480 	add.w	r4, r4, #1024	; 0x400
 800219c:	42a0      	cmp	r0, r4
 800219e:	d064      	beq.n	800226a <HAL_GPIO_Init+0x1ae>
 80021a0:	f504 6480 	add.w	r4, r4, #1024	; 0x400
 80021a4:	42a0      	cmp	r0, r4
 80021a6:	d062      	beq.n	800226e <HAL_GPIO_Init+0x1b2>
 80021a8:	4560      	cmp	r0, ip
 80021aa:	bf0c      	ite	eq
 80021ac:	2405      	moveq	r4, #5
 80021ae:	2406      	movne	r4, #6
 80021b0:	fa04 f40b 	lsl.w	r4, r4, fp
 80021b4:	ea44 0409 	orr.w	r4, r4, r9
 80021b8:	f8c8 4008 	str.w	r4, [r8, #8]
 80021bc:	681c      	ldr	r4, [r3, #0]
 80021be:	f41a 3f80 	tst.w	sl, #65536	; 0x10000
 80021c2:	bf14      	ite	ne
 80021c4:	432c      	orrne	r4, r5
 80021c6:	43ac      	biceq	r4, r5
 80021c8:	601c      	str	r4, [r3, #0]
 80021ca:	685c      	ldr	r4, [r3, #4]
 80021cc:	f41a 3f00 	tst.w	sl, #131072	; 0x20000
 80021d0:	bf14      	ite	ne
 80021d2:	432c      	orrne	r4, r5
 80021d4:	43ac      	biceq	r4, r5
 80021d6:	605c      	str	r4, [r3, #4]
 80021d8:	689c      	ldr	r4, [r3, #8]
 80021da:	f41a 1f80 	tst.w	sl, #1048576	; 0x100000
 80021de:	bf14      	ite	ne
 80021e0:	432c      	orrne	r4, r5
 80021e2:	43ac      	biceq	r4, r5
 80021e4:	609c      	str	r4, [r3, #8]
 80021e6:	68dc      	ldr	r4, [r3, #12]
 80021e8:	f41a 1f00 	tst.w	sl, #2097152	; 0x200000
 80021ec:	bf14      	ite	ne
 80021ee:	4325      	orrne	r5, r4
 80021f0:	ea24 0505 	biceq.w	r5, r4, r5
 80021f4:	60dd      	str	r5, [r3, #12]
 80021f6:	3601      	adds	r6, #1
 80021f8:	e76a      	b.n	80020d0 <HAL_GPIO_Init+0x14>
 80021fa:	4574      	cmp	r4, lr
 80021fc:	d00d      	beq.n	800221a <HAL_GPIO_Init+0x15e>
 80021fe:	d818      	bhi.n	8002232 <HAL_GPIO_Init+0x176>
 8002200:	f8df 9084 	ldr.w	r9, [pc, #132]	; 8002288 <HAL_GPIO_Init+0x1cc>
 8002204:	454c      	cmp	r4, r9
 8002206:	d008      	beq.n	800221a <HAL_GPIO_Init+0x15e>
 8002208:	f509 2970 	add.w	r9, r9, #983040	; 0xf0000
 800220c:	454c      	cmp	r4, r9
 800220e:	d004      	beq.n	800221a <HAL_GPIO_Init+0x15e>
 8002210:	f5a9 1980 	sub.w	r9, r9, #1048576	; 0x100000
 8002214:	454c      	cmp	r4, r9
 8002216:	f47f af7e 	bne.w	8002116 <HAL_GPIO_Init+0x5a>
 800221a:	688a      	ldr	r2, [r1, #8]
 800221c:	b1ea      	cbz	r2, 800225a <HAL_GPIO_Init+0x19e>
 800221e:	2a01      	cmp	r2, #1
 8002220:	bf08      	it	eq
 8002222:	f8c0 8010 	streq.w	r8, [r0, #16]
 8002226:	f04f 0208 	mov.w	r2, #8
 800222a:	bf18      	it	ne
 800222c:	f8c0 8014 	strne.w	r8, [r0, #20]
 8002230:	e771      	b.n	8002116 <HAL_GPIO_Init+0x5a>
 8002232:	f8df 9058 	ldr.w	r9, [pc, #88]	; 800228c <HAL_GPIO_Init+0x1d0>
 8002236:	454c      	cmp	r4, r9
 8002238:	d0ef      	beq.n	800221a <HAL_GPIO_Init+0x15e>
 800223a:	f509 3980 	add.w	r9, r9, #65536	; 0x10000
 800223e:	e7e9      	b.n	8002214 <HAL_GPIO_Init+0x158>
 8002240:	68ca      	ldr	r2, [r1, #12]
 8002242:	e768      	b.n	8002116 <HAL_GPIO_Init+0x5a>
 8002244:	68ca      	ldr	r2, [r1, #12]
 8002246:	3204      	adds	r2, #4
 8002248:	e765      	b.n	8002116 <HAL_GPIO_Init+0x5a>
 800224a:	68ca      	ldr	r2, [r1, #12]
 800224c:	3208      	adds	r2, #8
 800224e:	e762      	b.n	8002116 <HAL_GPIO_Init+0x5a>
 8002250:	68ca      	ldr	r2, [r1, #12]
 8002252:	320c      	adds	r2, #12
 8002254:	e75f      	b.n	8002116 <HAL_GPIO_Init+0x5a>
 8002256:	2200      	movs	r2, #0
 8002258:	e75d      	b.n	8002116 <HAL_GPIO_Init+0x5a>
 800225a:	2204      	movs	r2, #4
 800225c:	e75b      	b.n	8002116 <HAL_GPIO_Init+0x5a>
 800225e:	2400      	movs	r4, #0
 8002260:	e7a6      	b.n	80021b0 <HAL_GPIO_Init+0xf4>
 8002262:	2401      	movs	r4, #1
 8002264:	e7a4      	b.n	80021b0 <HAL_GPIO_Init+0xf4>
 8002266:	2402      	movs	r4, #2
 8002268:	e7a2      	b.n	80021b0 <HAL_GPIO_Init+0xf4>
 800226a:	2403      	movs	r4, #3
 800226c:	e7a0      	b.n	80021b0 <HAL_GPIO_Init+0xf4>
 800226e:	2404      	movs	r4, #4
 8002270:	e79e      	b.n	80021b0 <HAL_GPIO_Init+0xf4>
 8002272:	bf00      	nop
 8002274:	40021000 	.word	0x40021000
 8002278:	40010400 	.word	0x40010400
 800227c:	40010800 	.word	0x40010800
 8002280:	40011c00 	.word	0x40011c00
 8002284:	10220000 	.word	0x10220000
 8002288:	10120000 	.word	0x10120000
 800228c:	10310000 	.word	0x10310000

08002290 <HAL_GPIO_WritePin>:
 8002290:	b10a      	cbz	r2, 8002296 <HAL_GPIO_WritePin+0x6>
 8002292:	6101      	str	r1, [r0, #16]
 8002294:	4770      	bx	lr
 8002296:	0409      	lsls	r1, r1, #16
 8002298:	e7fb      	b.n	8002292 <HAL_GPIO_WritePin+0x2>

0800229a <HAL_GPIO_TogglePin>:
 800229a:	68c3      	ldr	r3, [r0, #12]
 800229c:	ea01 0203 	and.w	r2, r1, r3
 80022a0:	ea21 0103 	bic.w	r1, r1, r3
 80022a4:	ea41 4102 	orr.w	r1, r1, r2, lsl #16
 80022a8:	6101      	str	r1, [r0, #16]
 80022aa:	4770      	bx	lr

080022ac <HAL_PWR_EnableBkUpAccess>:
 80022ac:	2201      	movs	r2, #1
 80022ae:	4b01      	ldr	r3, [pc, #4]	; (80022b4 <HAL_PWR_EnableBkUpAccess+0x8>)
 80022b0:	601a      	str	r2, [r3, #0]
 80022b2:	4770      	bx	lr
 80022b4:	420e0020 	.word	0x420e0020

080022b8 <HAL_PWR_DisableBkUpAccess>:
 80022b8:	2200      	movs	r2, #0
 80022ba:	4b01      	ldr	r3, [pc, #4]	; (80022c0 <HAL_PWR_DisableBkUpAccess+0x8>)
 80022bc:	601a      	str	r2, [r3, #0]
 80022be:	4770      	bx	lr
 80022c0:	420e0020 	.word	0x420e0020

080022c4 <HAL_RCC_OscConfig>:
 80022c4:	e92d 41f3 	stmdb	sp!, {r0, r1, r4, r5, r6, r7, r8, lr}
 80022c8:	4605      	mov	r5, r0
 80022ca:	b338      	cbz	r0, 800231c <HAL_RCC_OscConfig+0x58>
 80022cc:	6803      	ldr	r3, [r0, #0]
 80022ce:	07db      	lsls	r3, r3, #31
 80022d0:	d410      	bmi.n	80022f4 <HAL_RCC_OscConfig+0x30>
 80022d2:	682b      	ldr	r3, [r5, #0]
 80022d4:	079f      	lsls	r7, r3, #30
 80022d6:	d45e      	bmi.n	8002396 <HAL_RCC_OscConfig+0xd2>
 80022d8:	682b      	ldr	r3, [r5, #0]
 80022da:	0719      	lsls	r1, r3, #28
 80022dc:	f100 8095 	bmi.w	800240a <HAL_RCC_OscConfig+0x146>
 80022e0:	682b      	ldr	r3, [r5, #0]
 80022e2:	075a      	lsls	r2, r3, #29
 80022e4:	f100 80bf 	bmi.w	8002466 <HAL_RCC_OscConfig+0x1a2>
 80022e8:	69e8      	ldr	r0, [r5, #28]
 80022ea:	2800      	cmp	r0, #0
 80022ec:	f040 812c 	bne.w	8002548 <HAL_RCC_OscConfig+0x284>
 80022f0:	2000      	movs	r0, #0
 80022f2:	e029      	b.n	8002348 <HAL_RCC_OscConfig+0x84>
 80022f4:	4c8f      	ldr	r4, [pc, #572]	; (8002534 <HAL_RCC_OscConfig+0x270>)
 80022f6:	6863      	ldr	r3, [r4, #4]
 80022f8:	f003 030c 	and.w	r3, r3, #12
 80022fc:	2b04      	cmp	r3, #4
 80022fe:	d007      	beq.n	8002310 <HAL_RCC_OscConfig+0x4c>
 8002300:	6863      	ldr	r3, [r4, #4]
 8002302:	f003 030c 	and.w	r3, r3, #12
 8002306:	2b08      	cmp	r3, #8
 8002308:	d10a      	bne.n	8002320 <HAL_RCC_OscConfig+0x5c>
 800230a:	6863      	ldr	r3, [r4, #4]
 800230c:	03de      	lsls	r6, r3, #15
 800230e:	d507      	bpl.n	8002320 <HAL_RCC_OscConfig+0x5c>
 8002310:	6823      	ldr	r3, [r4, #0]
 8002312:	039c      	lsls	r4, r3, #14
 8002314:	d5dd      	bpl.n	80022d2 <HAL_RCC_OscConfig+0xe>
 8002316:	686b      	ldr	r3, [r5, #4]
 8002318:	2b00      	cmp	r3, #0
 800231a:	d1da      	bne.n	80022d2 <HAL_RCC_OscConfig+0xe>
 800231c:	2001      	movs	r0, #1
 800231e:	e013      	b.n	8002348 <HAL_RCC_OscConfig+0x84>
 8002320:	686b      	ldr	r3, [r5, #4]
 8002322:	f5b3 3f80 	cmp.w	r3, #65536	; 0x10000
 8002326:	d112      	bne.n	800234e <HAL_RCC_OscConfig+0x8a>
 8002328:	6823      	ldr	r3, [r4, #0]
 800232a:	f443 3380 	orr.w	r3, r3, #65536	; 0x10000
 800232e:	6023      	str	r3, [r4, #0]
 8002330:	f7ff fc5a 	bl	8001be8 <HAL_GetTick>
 8002334:	4606      	mov	r6, r0
 8002336:	6823      	ldr	r3, [r4, #0]
 8002338:	0398      	lsls	r0, r3, #14
 800233a:	d4ca      	bmi.n	80022d2 <HAL_RCC_OscConfig+0xe>
 800233c:	f7ff fc54 	bl	8001be8 <HAL_GetTick>
 8002340:	1b80      	subs	r0, r0, r6
 8002342:	2864      	cmp	r0, #100	; 0x64
 8002344:	d9f7      	bls.n	8002336 <HAL_RCC_OscConfig+0x72>
 8002346:	2003      	movs	r0, #3
 8002348:	b002      	add	sp, #8
 800234a:	e8bd 81f0 	ldmia.w	sp!, {r4, r5, r6, r7, r8, pc}
 800234e:	b99b      	cbnz	r3, 8002378 <HAL_RCC_OscConfig+0xb4>
 8002350:	6823      	ldr	r3, [r4, #0]
 8002352:	f423 3380 	bic.w	r3, r3, #65536	; 0x10000
 8002356:	6023      	str	r3, [r4, #0]
 8002358:	6823      	ldr	r3, [r4, #0]
 800235a:	f423 2380 	bic.w	r3, r3, #262144	; 0x40000
 800235e:	6023      	str	r3, [r4, #0]
 8002360:	f7ff fc42 	bl	8001be8 <HAL_GetTick>
 8002364:	4606      	mov	r6, r0
 8002366:	6823      	ldr	r3, [r4, #0]
 8002368:	0399      	lsls	r1, r3, #14
 800236a:	d5b2      	bpl.n	80022d2 <HAL_RCC_OscConfig+0xe>
 800236c:	f7ff fc3c 	bl	8001be8 <HAL_GetTick>
 8002370:	1b80      	subs	r0, r0, r6
 8002372:	2864      	cmp	r0, #100	; 0x64
 8002374:	d9f7      	bls.n	8002366 <HAL_RCC_OscConfig+0xa2>
 8002376:	e7e6      	b.n	8002346 <HAL_RCC_OscConfig+0x82>
 8002378:	f5b3 2fa0 	cmp.w	r3, #327680	; 0x50000
 800237c:	6823      	ldr	r3, [r4, #0]
 800237e:	d103      	bne.n	8002388 <HAL_RCC_OscConfig+0xc4>
 8002380:	f443 2380 	orr.w	r3, r3, #262144	; 0x40000
 8002384:	6023      	str	r3, [r4, #0]
 8002386:	e7cf      	b.n	8002328 <HAL_RCC_OscConfig+0x64>
 8002388:	f423 3380 	bic.w	r3, r3, #65536	; 0x10000
 800238c:	6023      	str	r3, [r4, #0]
 800238e:	6823      	ldr	r3, [r4, #0]
 8002390:	f423 2380 	bic.w	r3, r3, #262144	; 0x40000
 8002394:	e7cb      	b.n	800232e <HAL_RCC_OscConfig+0x6a>
 8002396:	4c67      	ldr	r4, [pc, #412]	; (8002534 <HAL_RCC_OscConfig+0x270>)
 8002398:	6863      	ldr	r3, [r4, #4]
 800239a:	f013 0f0c 	tst.w	r3, #12
 800239e:	d007      	beq.n	80023b0 <HAL_RCC_OscConfig+0xec>
 80023a0:	6863      	ldr	r3, [r4, #4]
 80023a2:	f003 030c 	and.w	r3, r3, #12
 80023a6:	2b08      	cmp	r3, #8
 80023a8:	d110      	bne.n	80023cc <HAL_RCC_OscConfig+0x108>
 80023aa:	6863      	ldr	r3, [r4, #4]
 80023ac:	03da      	lsls	r2, r3, #15
 80023ae:	d40d      	bmi.n	80023cc <HAL_RCC_OscConfig+0x108>
 80023b0:	6823      	ldr	r3, [r4, #0]
 80023b2:	079b      	lsls	r3, r3, #30
 80023b4:	d502      	bpl.n	80023bc <HAL_RCC_OscConfig+0xf8>
 80023b6:	692b      	ldr	r3, [r5, #16]
 80023b8:	2b01      	cmp	r3, #1
 80023ba:	d1af      	bne.n	800231c <HAL_RCC_OscConfig+0x58>
 80023bc:	6823      	ldr	r3, [r4, #0]
 80023be:	696a      	ldr	r2, [r5, #20]
 80023c0:	f023 03f8 	bic.w	r3, r3, #248	; 0xf8
 80023c4:	ea43 03c2 	orr.w	r3, r3, r2, lsl #3
 80023c8:	6023      	str	r3, [r4, #0]
 80023ca:	e785      	b.n	80022d8 <HAL_RCC_OscConfig+0x14>
 80023cc:	692a      	ldr	r2, [r5, #16]
 80023ce:	4b5a      	ldr	r3, [pc, #360]	; (8002538 <HAL_RCC_OscConfig+0x274>)
 80023d0:	b16a      	cbz	r2, 80023ee <HAL_RCC_OscConfig+0x12a>
 80023d2:	2201      	movs	r2, #1
 80023d4:	601a      	str	r2, [r3, #0]
 80023d6:	f7ff fc07 	bl	8001be8 <HAL_GetTick>
 80023da:	4606      	mov	r6, r0
 80023dc:	6823      	ldr	r3, [r4, #0]
 80023de:	079f      	lsls	r7, r3, #30
 80023e0:	d4ec      	bmi.n	80023bc <HAL_RCC_OscConfig+0xf8>
 80023e2:	f7ff fc01 	bl	8001be8 <HAL_GetTick>
 80023e6:	1b80      	subs	r0, r0, r6
 80023e8:	2802      	cmp	r0, #2
 80023ea:	d9f7      	bls.n	80023dc <HAL_RCC_OscConfig+0x118>
 80023ec:	e7ab      	b.n	8002346 <HAL_RCC_OscConfig+0x82>
 80023ee:	601a      	str	r2, [r3, #0]
 80023f0:	f7ff fbfa 	bl	8001be8 <HAL_GetTick>
 80023f4:	4606      	mov	r6, r0
 80023f6:	6823      	ldr	r3, [r4, #0]
 80023f8:	0798      	lsls	r0, r3, #30
 80023fa:	f57f af6d 	bpl.w	80022d8 <HAL_RCC_OscConfig+0x14>
 80023fe:	f7ff fbf3 	bl	8001be8 <HAL_GetTick>
 8002402:	1b80      	subs	r0, r0, r6
 8002404:	2802      	cmp	r0, #2
 8002406:	d9f6      	bls.n	80023f6 <HAL_RCC_OscConfig+0x132>
 8002408:	e79d      	b.n	8002346 <HAL_RCC_OscConfig+0x82>
 800240a:	69aa      	ldr	r2, [r5, #24]
 800240c:	4e49      	ldr	r6, [pc, #292]	; (8002534 <HAL_RCC_OscConfig+0x270>)
 800240e:	4b4b      	ldr	r3, [pc, #300]	; (800253c <HAL_RCC_OscConfig+0x278>)
 8002410:	b1da      	cbz	r2, 800244a <HAL_RCC_OscConfig+0x186>
 8002412:	2201      	movs	r2, #1
 8002414:	601a      	str	r2, [r3, #0]
 8002416:	f7ff fbe7 	bl	8001be8 <HAL_GetTick>
 800241a:	4604      	mov	r4, r0
 800241c:	6a73      	ldr	r3, [r6, #36]	; 0x24
 800241e:	079b      	lsls	r3, r3, #30
 8002420:	d50d      	bpl.n	800243e <HAL_RCC_OscConfig+0x17a>
 8002422:	f44f 52fa 	mov.w	r2, #8000	; 0x1f40
 8002426:	4b46      	ldr	r3, [pc, #280]	; (8002540 <HAL_RCC_OscConfig+0x27c>)
 8002428:	681b      	ldr	r3, [r3, #0]
 800242a:	fbb3 f3f2 	udiv	r3, r3, r2
 800242e:	9301      	str	r3, [sp, #4]
 8002430:	bf00      	nop
 8002432:	9b01      	ldr	r3, [sp, #4]
 8002434:	1e5a      	subs	r2, r3, #1
 8002436:	9201      	str	r2, [sp, #4]
 8002438:	2b00      	cmp	r3, #0
 800243a:	d1f9      	bne.n	8002430 <HAL_RCC_OscConfig+0x16c>
 800243c:	e750      	b.n	80022e0 <HAL_RCC_OscConfig+0x1c>
 800243e:	f7ff fbd3 	bl	8001be8 <HAL_GetTick>
 8002442:	1b00      	subs	r0, r0, r4
 8002444:	2802      	cmp	r0, #2
 8002446:	d9e9      	bls.n	800241c <HAL_RCC_OscConfig+0x158>
 8002448:	e77d      	b.n	8002346 <HAL_RCC_OscConfig+0x82>
 800244a:	601a      	str	r2, [r3, #0]
 800244c:	f7ff fbcc 	bl	8001be8 <HAL_GetTick>
 8002450:	4604      	mov	r4, r0
 8002452:	6a73      	ldr	r3, [r6, #36]	; 0x24
 8002454:	079f      	lsls	r7, r3, #30
 8002456:	f57f af43 	bpl.w	80022e0 <HAL_RCC_OscConfig+0x1c>
 800245a:	f7ff fbc5 	bl	8001be8 <HAL_GetTick>
 800245e:	1b00      	subs	r0, r0, r4
 8002460:	2802      	cmp	r0, #2
 8002462:	d9f6      	bls.n	8002452 <HAL_RCC_OscConfig+0x18e>
 8002464:	e76f      	b.n	8002346 <HAL_RCC_OscConfig+0x82>
 8002466:	4c33      	ldr	r4, [pc, #204]	; (8002534 <HAL_RCC_OscConfig+0x270>)
 8002468:	69e3      	ldr	r3, [r4, #28]
 800246a:	00d8      	lsls	r0, r3, #3
 800246c:	d424      	bmi.n	80024b8 <HAL_RCC_OscConfig+0x1f4>
 800246e:	2701      	movs	r7, #1
 8002470:	69e3      	ldr	r3, [r4, #28]
 8002472:	f043 5380 	orr.w	r3, r3, #268435456	; 0x10000000
 8002476:	61e3      	str	r3, [r4, #28]
 8002478:	69e3      	ldr	r3, [r4, #28]
 800247a:	f003 5380 	and.w	r3, r3, #268435456	; 0x10000000
 800247e:	9300      	str	r3, [sp, #0]
 8002480:	9b00      	ldr	r3, [sp, #0]
 8002482:	4e30      	ldr	r6, [pc, #192]	; (8002544 <HAL_RCC_OscConfig+0x280>)
 8002484:	6833      	ldr	r3, [r6, #0]
 8002486:	05d9      	lsls	r1, r3, #23
 8002488:	d518      	bpl.n	80024bc <HAL_RCC_OscConfig+0x1f8>
 800248a:	68eb      	ldr	r3, [r5, #12]
 800248c:	2b01      	cmp	r3, #1
 800248e:	d126      	bne.n	80024de <HAL_RCC_OscConfig+0x21a>
 8002490:	6a23      	ldr	r3, [r4, #32]
 8002492:	f043 0301 	orr.w	r3, r3, #1
 8002496:	6223      	str	r3, [r4, #32]
 8002498:	f7ff fba6 	bl	8001be8 <HAL_GetTick>
 800249c:	f241 3888 	movw	r8, #5000	; 0x1388
 80024a0:	4606      	mov	r6, r0
 80024a2:	6a23      	ldr	r3, [r4, #32]
 80024a4:	079b      	lsls	r3, r3, #30
 80024a6:	d53f      	bpl.n	8002528 <HAL_RCC_OscConfig+0x264>
 80024a8:	2f00      	cmp	r7, #0
 80024aa:	f43f af1d 	beq.w	80022e8 <HAL_RCC_OscConfig+0x24>
 80024ae:	69e3      	ldr	r3, [r4, #28]
 80024b0:	f023 5380 	bic.w	r3, r3, #268435456	; 0x10000000
 80024b4:	61e3      	str	r3, [r4, #28]
 80024b6:	e717      	b.n	80022e8 <HAL_RCC_OscConfig+0x24>
 80024b8:	2700      	movs	r7, #0
 80024ba:	e7e2      	b.n	8002482 <HAL_RCC_OscConfig+0x1be>
 80024bc:	6833      	ldr	r3, [r6, #0]
 80024be:	f443 7380 	orr.w	r3, r3, #256	; 0x100
 80024c2:	6033      	str	r3, [r6, #0]
 80024c4:	f7ff fb90 	bl	8001be8 <HAL_GetTick>
 80024c8:	4680      	mov	r8, r0
 80024ca:	6833      	ldr	r3, [r6, #0]
 80024cc:	05da      	lsls	r2, r3, #23
 80024ce:	d4dc      	bmi.n	800248a <HAL_RCC_OscConfig+0x1c6>
 80024d0:	f7ff fb8a 	bl	8001be8 <HAL_GetTick>
 80024d4:	eba0 0008 	sub.w	r0, r0, r8
 80024d8:	2864      	cmp	r0, #100	; 0x64
 80024da:	d9f6      	bls.n	80024ca <HAL_RCC_OscConfig+0x206>
 80024dc:	e733      	b.n	8002346 <HAL_RCC_OscConfig+0x82>
 80024de:	b9ab      	cbnz	r3, 800250c <HAL_RCC_OscConfig+0x248>
 80024e0:	6a23      	ldr	r3, [r4, #32]
 80024e2:	f241 3888 	movw	r8, #5000	; 0x1388
 80024e6:	f023 0301 	bic.w	r3, r3, #1
 80024ea:	6223      	str	r3, [r4, #32]
 80024ec:	6a23      	ldr	r3, [r4, #32]
 80024ee:	f023 0304 	bic.w	r3, r3, #4
 80024f2:	6223      	str	r3, [r4, #32]
 80024f4:	f7ff fb78 	bl	8001be8 <HAL_GetTick>
 80024f8:	4606      	mov	r6, r0
 80024fa:	6a23      	ldr	r3, [r4, #32]
 80024fc:	0798      	lsls	r0, r3, #30
 80024fe:	d5d3      	bpl.n	80024a8 <HAL_RCC_OscConfig+0x1e4>
 8002500:	f7ff fb72 	bl	8001be8 <HAL_GetTick>
 8002504:	1b80      	subs	r0, r0, r6
 8002506:	4540      	cmp	r0, r8
 8002508:	d9f7      	bls.n	80024fa <HAL_RCC_OscConfig+0x236>
 800250a:	e71c      	b.n	8002346 <HAL_RCC_OscConfig+0x82>
 800250c:	2b05      	cmp	r3, #5
 800250e:	6a23      	ldr	r3, [r4, #32]
 8002510:	d103      	bne.n	800251a <HAL_RCC_OscConfig+0x256>
 8002512:	f043 0304 	orr.w	r3, r3, #4
 8002516:	6223      	str	r3, [r4, #32]
 8002518:	e7ba      	b.n	8002490 <HAL_RCC_OscConfig+0x1cc>
 800251a:	f023 0301 	bic.w	r3, r3, #1
 800251e:	6223      	str	r3, [r4, #32]
 8002520:	6a23      	ldr	r3, [r4, #32]
 8002522:	f023 0304 	bic.w	r3, r3, #4
 8002526:	e7b6      	b.n	8002496 <HAL_RCC_OscConfig+0x1d2>
 8002528:	f7ff fb5e 	bl	8001be8 <HAL_GetTick>
 800252c:	1b80      	subs	r0, r0, r6
 800252e:	4540      	cmp	r0, r8
 8002530:	d9b7      	bls.n	80024a2 <HAL_RCC_OscConfig+0x1de>
 8002532:	e708      	b.n	8002346 <HAL_RCC_OscConfig+0x82>
 8002534:	40021000 	.word	0x40021000
 8002538:	42420000 	.word	0x42420000
 800253c:	42420480 	.word	0x42420480
 8002540:	20000000 	.word	0x20000000
 8002544:	40007000 	.word	0x40007000
 8002548:	4b2a      	ldr	r3, [pc, #168]	; (80025f4 <HAL_RCC_OscConfig+0x330>)
 800254a:	685a      	ldr	r2, [r3, #4]
 800254c:	461c      	mov	r4, r3
 800254e:	f002 020c 	and.w	r2, r2, #12
 8002552:	2a08      	cmp	r2, #8
 8002554:	d03d      	beq.n	80025d2 <HAL_RCC_OscConfig+0x30e>
 8002556:	2300      	movs	r3, #0
 8002558:	4e27      	ldr	r6, [pc, #156]	; (80025f8 <HAL_RCC_OscConfig+0x334>)
 800255a:	2802      	cmp	r0, #2
 800255c:	6033      	str	r3, [r6, #0]
 800255e:	d12b      	bne.n	80025b8 <HAL_RCC_OscConfig+0x2f4>
 8002560:	f7ff fb42 	bl	8001be8 <HAL_GetTick>
 8002564:	4607      	mov	r7, r0
 8002566:	6823      	ldr	r3, [r4, #0]
 8002568:	0199      	lsls	r1, r3, #6
 800256a:	d41f      	bmi.n	80025ac <HAL_RCC_OscConfig+0x2e8>
 800256c:	6a2b      	ldr	r3, [r5, #32]
 800256e:	f5b3 3f80 	cmp.w	r3, #65536	; 0x10000
 8002572:	d105      	bne.n	8002580 <HAL_RCC_OscConfig+0x2bc>
 8002574:	6862      	ldr	r2, [r4, #4]
 8002576:	68a9      	ldr	r1, [r5, #8]
 8002578:	f422 3200 	bic.w	r2, r2, #131072	; 0x20000
 800257c:	430a      	orrs	r2, r1
 800257e:	6062      	str	r2, [r4, #4]
 8002580:	6a69      	ldr	r1, [r5, #36]	; 0x24
 8002582:	6862      	ldr	r2, [r4, #4]
 8002584:	430b      	orrs	r3, r1
 8002586:	f422 1274 	bic.w	r2, r2, #3997696	; 0x3d0000
 800258a:	4313      	orrs	r3, r2
 800258c:	6063      	str	r3, [r4, #4]
 800258e:	2301      	movs	r3, #1
 8002590:	6033      	str	r3, [r6, #0]
 8002592:	f7ff fb29 	bl	8001be8 <HAL_GetTick>
 8002596:	4605      	mov	r5, r0
 8002598:	6823      	ldr	r3, [r4, #0]
 800259a:	019a      	lsls	r2, r3, #6
 800259c:	f53f aea8 	bmi.w	80022f0 <HAL_RCC_OscConfig+0x2c>
 80025a0:	f7ff fb22 	bl	8001be8 <HAL_GetTick>
 80025a4:	1b40      	subs	r0, r0, r5
 80025a6:	2802      	cmp	r0, #2
 80025a8:	d9f6      	bls.n	8002598 <HAL_RCC_OscConfig+0x2d4>
 80025aa:	e6cc      	b.n	8002346 <HAL_RCC_OscConfig+0x82>
 80025ac:	f7ff fb1c 	bl	8001be8 <HAL_GetTick>
 80025b0:	1bc0      	subs	r0, r0, r7
 80025b2:	2802      	cmp	r0, #2
 80025b4:	d9d7      	bls.n	8002566 <HAL_RCC_OscConfig+0x2a2>
 80025b6:	e6c6      	b.n	8002346 <HAL_RCC_OscConfig+0x82>
 80025b8:	f7ff fb16 	bl	8001be8 <HAL_GetTick>
 80025bc:	4605      	mov	r5, r0
 80025be:	6823      	ldr	r3, [r4, #0]
 80025c0:	019b      	lsls	r3, r3, #6
 80025c2:	f57f ae95 	bpl.w	80022f0 <HAL_RCC_OscConfig+0x2c>
 80025c6:	f7ff fb0f 	bl	8001be8 <HAL_GetTick>
 80025ca:	1b40      	subs	r0, r0, r5
 80025cc:	2802      	cmp	r0, #2
 80025ce:	d9f6      	bls.n	80025be <HAL_RCC_OscConfig+0x2fa>
 80025d0:	e6b9      	b.n	8002346 <HAL_RCC_OscConfig+0x82>
 80025d2:	2801      	cmp	r0, #1
 80025d4:	f43f aeb8 	beq.w	8002348 <HAL_RCC_OscConfig+0x84>
 80025d8:	685b      	ldr	r3, [r3, #4]
 80025da:	6a2a      	ldr	r2, [r5, #32]
 80025dc:	f403 3180 	and.w	r1, r3, #65536	; 0x10000
 80025e0:	4291      	cmp	r1, r2
 80025e2:	f47f ae9b 	bne.w	800231c <HAL_RCC_OscConfig+0x58>
 80025e6:	6a6a      	ldr	r2, [r5, #36]	; 0x24
 80025e8:	f403 1370 	and.w	r3, r3, #3932160	; 0x3c0000
 80025ec:	4293      	cmp	r3, r2
 80025ee:	f43f ae7f 	beq.w	80022f0 <HAL_RCC_OscConfig+0x2c>
 80025f2:	e693      	b.n	800231c <HAL_RCC_OscConfig+0x58>
 80025f4:	40021000 	.word	0x40021000
 80025f8:	42420060 	.word	0x42420060

080025fc <HAL_RCC_GetSysClockFreq>:
 80025fc:	b530      	push	{r4, r5, lr}
 80025fe:	4b18      	ldr	r3, [pc, #96]	; (8002660 <HAL_RCC_GetSysClockFreq+0x64>)
 8002600:	b087      	sub	sp, #28
 8002602:	ac02      	add	r4, sp, #8
 8002604:	f103 0510 	add.w	r5, r3, #16
 8002608:	4622      	mov	r2, r4
 800260a:	6818      	ldr	r0, [r3, #0]
 800260c:	6859      	ldr	r1, [r3, #4]
 800260e:	3308      	adds	r3, #8
 8002610:	c203      	stmia	r2!, {r0, r1}
 8002612:	42ab      	cmp	r3, r5
 8002614:	4614      	mov	r4, r2
 8002616:	d1f7      	bne.n	8002608 <HAL_RCC_GetSysClockFreq+0xc>
 8002618:	f240 2301 	movw	r3, #513	; 0x201
 800261c:	4911      	ldr	r1, [pc, #68]	; (8002664 <HAL_RCC_GetSysClockFreq+0x68>)
 800261e:	f8ad 3004 	strh.w	r3, [sp, #4]
 8002622:	684b      	ldr	r3, [r1, #4]
 8002624:	f003 020c 	and.w	r2, r3, #12
 8002628:	2a08      	cmp	r2, #8
 800262a:	d117      	bne.n	800265c <HAL_RCC_GetSysClockFreq+0x60>
 800262c:	f3c3 4283 	ubfx	r2, r3, #18, #4
 8002630:	a806      	add	r0, sp, #24
 8002632:	4402      	add	r2, r0
 8002634:	03db      	lsls	r3, r3, #15
 8002636:	f812 2c10 	ldrb.w	r2, [r2, #-16]
 800263a:	d50c      	bpl.n	8002656 <HAL_RCC_GetSysClockFreq+0x5a>
 800263c:	684b      	ldr	r3, [r1, #4]
 800263e:	480a      	ldr	r0, [pc, #40]	; (8002668 <HAL_RCC_GetSysClockFreq+0x6c>)
 8002640:	f3c3 4340 	ubfx	r3, r3, #17, #1
 8002644:	4350      	muls	r0, r2
 8002646:	aa06      	add	r2, sp, #24
 8002648:	4413      	add	r3, r2
 800264a:	f813 3c14 	ldrb.w	r3, [r3, #-20]
 800264e:	fbb0 f0f3 	udiv	r0, r0, r3
 8002652:	b007      	add	sp, #28
 8002654:	bd30      	pop	{r4, r5, pc}
 8002656:	4805      	ldr	r0, [pc, #20]	; (800266c <HAL_RCC_GetSysClockFreq+0x70>)
 8002658:	4350      	muls	r0, r2
 800265a:	e7fa      	b.n	8002652 <HAL_RCC_GetSysClockFreq+0x56>
 800265c:	4802      	ldr	r0, [pc, #8]	; (8002668 <HAL_RCC_GetSysClockFreq+0x6c>)
 800265e:	e7f8      	b.n	8002652 <HAL_RCC_GetSysClockFreq+0x56>
 8002660:	08006500 	.word	0x08006500
 8002664:	40021000 	.word	0x40021000
 8002668:	007a1200 	.word	0x007a1200
 800266c:	003d0900 	.word	0x003d0900

08002670 <HAL_RCC_ClockConfig>:
 8002670:	e92d 41f0 	stmdb	sp!, {r4, r5, r6, r7, r8, lr}
 8002674:	460d      	mov	r5, r1
 8002676:	4604      	mov	r4, r0
 8002678:	b910      	cbnz	r0, 8002680 <HAL_RCC_ClockConfig+0x10>
 800267a:	2001      	movs	r0, #1
 800267c:	e8bd 81f0 	ldmia.w	sp!, {r4, r5, r6, r7, r8, pc}
 8002680:	4a44      	ldr	r2, [pc, #272]	; (8002794 <HAL_RCC_ClockConfig+0x124>)
 8002682:	6813      	ldr	r3, [r2, #0]
 8002684:	f003 0307 	and.w	r3, r3, #7
 8002688:	428b      	cmp	r3, r1
 800268a:	d328      	bcc.n	80026de <HAL_RCC_ClockConfig+0x6e>
 800268c:	6821      	ldr	r1, [r4, #0]
 800268e:	078e      	lsls	r6, r1, #30
 8002690:	d430      	bmi.n	80026f4 <HAL_RCC_ClockConfig+0x84>
 8002692:	07ca      	lsls	r2, r1, #31
 8002694:	d443      	bmi.n	800271e <HAL_RCC_ClockConfig+0xae>
 8002696:	4a3f      	ldr	r2, [pc, #252]	; (8002794 <HAL_RCC_ClockConfig+0x124>)
 8002698:	6813      	ldr	r3, [r2, #0]
 800269a:	f003 0307 	and.w	r3, r3, #7
 800269e:	42ab      	cmp	r3, r5
 80026a0:	d865      	bhi.n	800276e <HAL_RCC_ClockConfig+0xfe>
 80026a2:	6822      	ldr	r2, [r4, #0]
 80026a4:	4d3c      	ldr	r5, [pc, #240]	; (8002798 <HAL_RCC_ClockConfig+0x128>)
 80026a6:	f012 0f04 	tst.w	r2, #4
 80026aa:	d16c      	bne.n	8002786 <HAL_RCC_ClockConfig+0x116>
 80026ac:	0713      	lsls	r3, r2, #28
 80026ae:	d506      	bpl.n	80026be <HAL_RCC_ClockConfig+0x4e>
 80026b0:	686b      	ldr	r3, [r5, #4]
 80026b2:	6922      	ldr	r2, [r4, #16]
 80026b4:	f423 5360 	bic.w	r3, r3, #14336	; 0x3800
 80026b8:	ea43 03c2 	orr.w	r3, r3, r2, lsl #3
 80026bc:	606b      	str	r3, [r5, #4]
 80026be:	f7ff ff9d 	bl	80025fc <HAL_RCC_GetSysClockFreq>
 80026c2:	686b      	ldr	r3, [r5, #4]
 80026c4:	4a35      	ldr	r2, [pc, #212]	; (800279c <HAL_RCC_ClockConfig+0x12c>)
 80026c6:	f3c3 1303 	ubfx	r3, r3, #4, #4
 80026ca:	5cd3      	ldrb	r3, [r2, r3]
 80026cc:	40d8      	lsrs	r0, r3
 80026ce:	4b34      	ldr	r3, [pc, #208]	; (80027a0 <HAL_RCC_ClockConfig+0x130>)
 80026d0:	6018      	str	r0, [r3, #0]
 80026d2:	4b34      	ldr	r3, [pc, #208]	; (80027a4 <HAL_RCC_ClockConfig+0x134>)
 80026d4:	6818      	ldr	r0, [r3, #0]
 80026d6:	f7ff fa45 	bl	8001b64 <HAL_InitTick>
 80026da:	2000      	movs	r0, #0
 80026dc:	e7ce      	b.n	800267c <HAL_RCC_ClockConfig+0xc>
 80026de:	6813      	ldr	r3, [r2, #0]
 80026e0:	f023 0307 	bic.w	r3, r3, #7
 80026e4:	430b      	orrs	r3, r1
 80026e6:	6013      	str	r3, [r2, #0]
 80026e8:	6813      	ldr	r3, [r2, #0]
 80026ea:	f003 0307 	and.w	r3, r3, #7
 80026ee:	428b      	cmp	r3, r1
 80026f0:	d1c3      	bne.n	800267a <HAL_RCC_ClockConfig+0xa>
 80026f2:	e7cb      	b.n	800268c <HAL_RCC_ClockConfig+0x1c>
 80026f4:	4b28      	ldr	r3, [pc, #160]	; (8002798 <HAL_RCC_ClockConfig+0x128>)
 80026f6:	f011 0f04 	tst.w	r1, #4
 80026fa:	bf1e      	ittt	ne
 80026fc:	685a      	ldrne	r2, [r3, #4]
 80026fe:	f442 62e0 	orrne.w	r2, r2, #1792	; 0x700
 8002702:	605a      	strne	r2, [r3, #4]
 8002704:	0708      	lsls	r0, r1, #28
 8002706:	bf42      	ittt	mi
 8002708:	685a      	ldrmi	r2, [r3, #4]
 800270a:	f442 5260 	orrmi.w	r2, r2, #14336	; 0x3800
 800270e:	605a      	strmi	r2, [r3, #4]
 8002710:	685a      	ldr	r2, [r3, #4]
 8002712:	68a0      	ldr	r0, [r4, #8]
 8002714:	f022 02f0 	bic.w	r2, r2, #240	; 0xf0
 8002718:	4302      	orrs	r2, r0
 800271a:	605a      	str	r2, [r3, #4]
 800271c:	e7b9      	b.n	8002692 <HAL_RCC_ClockConfig+0x22>
 800271e:	6862      	ldr	r2, [r4, #4]
 8002720:	4e1d      	ldr	r6, [pc, #116]	; (8002798 <HAL_RCC_ClockConfig+0x128>)
 8002722:	2a01      	cmp	r2, #1
 8002724:	6833      	ldr	r3, [r6, #0]
 8002726:	d11a      	bne.n	800275e <HAL_RCC_ClockConfig+0xee>
 8002728:	f413 3f00 	tst.w	r3, #131072	; 0x20000
 800272c:	d0a5      	beq.n	800267a <HAL_RCC_ClockConfig+0xa>
 800272e:	6873      	ldr	r3, [r6, #4]
 8002730:	f241 3888 	movw	r8, #5000	; 0x1388
 8002734:	f023 0303 	bic.w	r3, r3, #3
 8002738:	4313      	orrs	r3, r2
 800273a:	6073      	str	r3, [r6, #4]
 800273c:	f7ff fa54 	bl	8001be8 <HAL_GetTick>
 8002740:	4607      	mov	r7, r0
 8002742:	6873      	ldr	r3, [r6, #4]
 8002744:	6862      	ldr	r2, [r4, #4]
 8002746:	f003 030c 	and.w	r3, r3, #12
 800274a:	ebb3 0f82 	cmp.w	r3, r2, lsl #2
 800274e:	d0a2      	beq.n	8002696 <HAL_RCC_ClockConfig+0x26>
 8002750:	f7ff fa4a 	bl	8001be8 <HAL_GetTick>
 8002754:	1bc0      	subs	r0, r0, r7
 8002756:	4540      	cmp	r0, r8
 8002758:	d9f3      	bls.n	8002742 <HAL_RCC_ClockConfig+0xd2>
 800275a:	2003      	movs	r0, #3
 800275c:	e78e      	b.n	800267c <HAL_RCC_ClockConfig+0xc>
 800275e:	2a02      	cmp	r2, #2
 8002760:	d102      	bne.n	8002768 <HAL_RCC_ClockConfig+0xf8>
 8002762:	f013 7f00 	tst.w	r3, #33554432	; 0x2000000
 8002766:	e7e1      	b.n	800272c <HAL_RCC_ClockConfig+0xbc>
 8002768:	f013 0f02 	tst.w	r3, #2
 800276c:	e7de      	b.n	800272c <HAL_RCC_ClockConfig+0xbc>
 800276e:	6813      	ldr	r3, [r2, #0]
 8002770:	f023 0307 	bic.w	r3, r3, #7
 8002774:	432b      	orrs	r3, r5
 8002776:	6013      	str	r3, [r2, #0]
 8002778:	6813      	ldr	r3, [r2, #0]
 800277a:	f003 0307 	and.w	r3, r3, #7
 800277e:	42ab      	cmp	r3, r5
 8002780:	f47f af7b 	bne.w	800267a <HAL_RCC_ClockConfig+0xa>
 8002784:	e78d      	b.n	80026a2 <HAL_RCC_ClockConfig+0x32>
 8002786:	686b      	ldr	r3, [r5, #4]
 8002788:	68e1      	ldr	r1, [r4, #12]
 800278a:	f423 63e0 	bic.w	r3, r3, #1792	; 0x700
 800278e:	430b      	orrs	r3, r1
 8002790:	606b      	str	r3, [r5, #4]
 8002792:	e78b      	b.n	80026ac <HAL_RCC_ClockConfig+0x3c>
 8002794:	40022000 	.word	0x40022000
 8002798:	40021000 	.word	0x40021000
 800279c:	080064e8 	.word	0x080064e8
 80027a0:	20000000 	.word	0x20000000
 80027a4:	20000008 	.word	0x20000008

080027a8 <HAL_RCC_GetPCLK1Freq>:
 80027a8:	4b04      	ldr	r3, [pc, #16]	; (80027bc <HAL_RCC_GetPCLK1Freq+0x14>)
 80027aa:	4a05      	ldr	r2, [pc, #20]	; (80027c0 <HAL_RCC_GetPCLK1Freq+0x18>)
 80027ac:	685b      	ldr	r3, [r3, #4]
 80027ae:	f3c3 2302 	ubfx	r3, r3, #8, #3
 80027b2:	5cd3      	ldrb	r3, [r2, r3]
 80027b4:	4a03      	ldr	r2, [pc, #12]	; (80027c4 <HAL_RCC_GetPCLK1Freq+0x1c>)
 80027b6:	6810      	ldr	r0, [r2, #0]
 80027b8:	40d8      	lsrs	r0, r3
 80027ba:	4770      	bx	lr
 80027bc:	40021000 	.word	0x40021000
 80027c0:	080064f8 	.word	0x080064f8
 80027c4:	20000000 	.word	0x20000000

080027c8 <HAL_RCC_GetPCLK2Freq>:
 80027c8:	4b04      	ldr	r3, [pc, #16]	; (80027dc <HAL_RCC_GetPCLK2Freq+0x14>)
 80027ca:	4a05      	ldr	r2, [pc, #20]	; (80027e0 <HAL_RCC_GetPCLK2Freq+0x18>)
 80027cc:	685b      	ldr	r3, [r3, #4]
 80027ce:	f3c3 23c2 	ubfx	r3, r3, #11, #3
 80027d2:	5cd3      	ldrb	r3, [r2, r3]
 80027d4:	4a03      	ldr	r2, [pc, #12]	; (80027e4 <HAL_RCC_GetPCLK2Freq+0x1c>)
 80027d6:	6810      	ldr	r0, [r2, #0]
 80027d8:	40d8      	lsrs	r0, r3
 80027da:	4770      	bx	lr
 80027dc:	40021000 	.word	0x40021000
 80027e0:	080064f8 	.word	0x080064f8
 80027e4:	20000000 	.word	0x20000000

080027e8 <HAL_RCCEx_PeriphCLKConfig>:
 80027e8:	6803      	ldr	r3, [r0, #0]
 80027ea:	e92d 41f3 	stmdb	sp!, {r0, r1, r4, r5, r6, r7, r8, lr}
 80027ee:	07d9      	lsls	r1, r3, #31
 80027f0:	4605      	mov	r5, r0
 80027f2:	d520      	bpl.n	8002836 <HAL_RCCEx_PeriphCLKConfig+0x4e>
 80027f4:	4c35      	ldr	r4, [pc, #212]	; (80028cc <HAL_RCCEx_PeriphCLKConfig+0xe4>)
 80027f6:	69e3      	ldr	r3, [r4, #28]
 80027f8:	00da      	lsls	r2, r3, #3
 80027fa:	d432      	bmi.n	8002862 <HAL_RCCEx_PeriphCLKConfig+0x7a>
 80027fc:	2701      	movs	r7, #1
 80027fe:	69e3      	ldr	r3, [r4, #28]
 8002800:	f043 5380 	orr.w	r3, r3, #268435456	; 0x10000000
 8002804:	61e3      	str	r3, [r4, #28]
 8002806:	69e3      	ldr	r3, [r4, #28]
 8002808:	f003 5380 	and.w	r3, r3, #268435456	; 0x10000000
 800280c:	9301      	str	r3, [sp, #4]
 800280e:	9b01      	ldr	r3, [sp, #4]
 8002810:	4e2f      	ldr	r6, [pc, #188]	; (80028d0 <HAL_RCCEx_PeriphCLKConfig+0xe8>)
 8002812:	6833      	ldr	r3, [r6, #0]
 8002814:	05db      	lsls	r3, r3, #23
 8002816:	d526      	bpl.n	8002866 <HAL_RCCEx_PeriphCLKConfig+0x7e>
 8002818:	6a23      	ldr	r3, [r4, #32]
 800281a:	f413 7340 	ands.w	r3, r3, #768	; 0x300
 800281e:	d136      	bne.n	800288e <HAL_RCCEx_PeriphCLKConfig+0xa6>
 8002820:	6a23      	ldr	r3, [r4, #32]
 8002822:	686a      	ldr	r2, [r5, #4]
 8002824:	f423 7340 	bic.w	r3, r3, #768	; 0x300
 8002828:	4313      	orrs	r3, r2
 800282a:	6223      	str	r3, [r4, #32]
 800282c:	b11f      	cbz	r7, 8002836 <HAL_RCCEx_PeriphCLKConfig+0x4e>
 800282e:	69e3      	ldr	r3, [r4, #28]
 8002830:	f023 5380 	bic.w	r3, r3, #268435456	; 0x10000000
 8002834:	61e3      	str	r3, [r4, #28]
 8002836:	6828      	ldr	r0, [r5, #0]
 8002838:	0783      	lsls	r3, r0, #30
 800283a:	d506      	bpl.n	800284a <HAL_RCCEx_PeriphCLKConfig+0x62>
 800283c:	4923      	ldr	r1, [pc, #140]	; (80028cc <HAL_RCCEx_PeriphCLKConfig+0xe4>)
 800283e:	68ab      	ldr	r3, [r5, #8]
 8002840:	684a      	ldr	r2, [r1, #4]
 8002842:	f422 4240 	bic.w	r2, r2, #49152	; 0xc000
 8002846:	431a      	orrs	r2, r3
 8002848:	604a      	str	r2, [r1, #4]
 800284a:	f010 0010 	ands.w	r0, r0, #16
 800284e:	d01b      	beq.n	8002888 <HAL_RCCEx_PeriphCLKConfig+0xa0>
 8002850:	4a1e      	ldr	r2, [pc, #120]	; (80028cc <HAL_RCCEx_PeriphCLKConfig+0xe4>)
 8002852:	6969      	ldr	r1, [r5, #20]
 8002854:	6853      	ldr	r3, [r2, #4]
 8002856:	2000      	movs	r0, #0
 8002858:	f423 0380 	bic.w	r3, r3, #4194304	; 0x400000
 800285c:	430b      	orrs	r3, r1
 800285e:	6053      	str	r3, [r2, #4]
 8002860:	e012      	b.n	8002888 <HAL_RCCEx_PeriphCLKConfig+0xa0>
 8002862:	2700      	movs	r7, #0
 8002864:	e7d4      	b.n	8002810 <HAL_RCCEx_PeriphCLKConfig+0x28>
 8002866:	6833      	ldr	r3, [r6, #0]
 8002868:	f443 7380 	orr.w	r3, r3, #256	; 0x100
 800286c:	6033      	str	r3, [r6, #0]
 800286e:	f7ff f9bb 	bl	8001be8 <HAL_GetTick>
 8002872:	4680      	mov	r8, r0
 8002874:	6833      	ldr	r3, [r6, #0]
 8002876:	05d8      	lsls	r0, r3, #23
 8002878:	d4ce      	bmi.n	8002818 <HAL_RCCEx_PeriphCLKConfig+0x30>
 800287a:	f7ff f9b5 	bl	8001be8 <HAL_GetTick>
 800287e:	eba0 0008 	sub.w	r0, r0, r8
 8002882:	2864      	cmp	r0, #100	; 0x64
 8002884:	d9f6      	bls.n	8002874 <HAL_RCCEx_PeriphCLKConfig+0x8c>
 8002886:	2003      	movs	r0, #3
 8002888:	b002      	add	sp, #8
 800288a:	e8bd 81f0 	ldmia.w	sp!, {r4, r5, r6, r7, r8, pc}
 800288e:	686a      	ldr	r2, [r5, #4]
 8002890:	f402 7240 	and.w	r2, r2, #768	; 0x300
 8002894:	429a      	cmp	r2, r3
 8002896:	d0c3      	beq.n	8002820 <HAL_RCCEx_PeriphCLKConfig+0x38>
 8002898:	2001      	movs	r0, #1
 800289a:	4a0e      	ldr	r2, [pc, #56]	; (80028d4 <HAL_RCCEx_PeriphCLKConfig+0xec>)
 800289c:	6a23      	ldr	r3, [r4, #32]
 800289e:	6010      	str	r0, [r2, #0]
 80028a0:	2000      	movs	r0, #0
 80028a2:	f423 7140 	bic.w	r1, r3, #768	; 0x300
 80028a6:	6010      	str	r0, [r2, #0]
 80028a8:	6221      	str	r1, [r4, #32]
 80028aa:	07d9      	lsls	r1, r3, #31
 80028ac:	d5b8      	bpl.n	8002820 <HAL_RCCEx_PeriphCLKConfig+0x38>
 80028ae:	f7ff f99b 	bl	8001be8 <HAL_GetTick>
 80028b2:	f241 3888 	movw	r8, #5000	; 0x1388
 80028b6:	4606      	mov	r6, r0
 80028b8:	6a23      	ldr	r3, [r4, #32]
 80028ba:	079a      	lsls	r2, r3, #30
 80028bc:	d4b0      	bmi.n	8002820 <HAL_RCCEx_PeriphCLKConfig+0x38>
 80028be:	f7ff f993 	bl	8001be8 <HAL_GetTick>
 80028c2:	1b80      	subs	r0, r0, r6
 80028c4:	4540      	cmp	r0, r8
 80028c6:	d9f7      	bls.n	80028b8 <HAL_RCCEx_PeriphCLKConfig+0xd0>
 80028c8:	e7dd      	b.n	8002886 <HAL_RCCEx_PeriphCLKConfig+0x9e>
 80028ca:	bf00      	nop
 80028cc:	40021000 	.word	0x40021000
 80028d0:	40007000 	.word	0x40007000
 80028d4:	42420440 	.word	0x42420440

080028d8 <TIM_OC1_SetConfig>:
 80028d8:	6a03      	ldr	r3, [r0, #32]
 80028da:	b570      	push	{r4, r5, r6, lr}
 80028dc:	f023 0301 	bic.w	r3, r3, #1
 80028e0:	6203      	str	r3, [r0, #32]
 80028e2:	6a03      	ldr	r3, [r0, #32]
 80028e4:	6844      	ldr	r4, [r0, #4]
 80028e6:	6982      	ldr	r2, [r0, #24]
 80028e8:	680d      	ldr	r5, [r1, #0]
 80028ea:	f022 0273 	bic.w	r2, r2, #115	; 0x73
 80028ee:	432a      	orrs	r2, r5
 80028f0:	688d      	ldr	r5, [r1, #8]
 80028f2:	f023 0302 	bic.w	r3, r3, #2
 80028f6:	432b      	orrs	r3, r5
 80028f8:	4d0e      	ldr	r5, [pc, #56]	; (8002934 <TIM_OC1_SetConfig+0x5c>)
 80028fa:	42a8      	cmp	r0, r5
 80028fc:	d002      	beq.n	8002904 <TIM_OC1_SetConfig+0x2c>
 80028fe:	4e0e      	ldr	r6, [pc, #56]	; (8002938 <TIM_OC1_SetConfig+0x60>)
 8002900:	42b0      	cmp	r0, r6
 8002902:	d110      	bne.n	8002926 <TIM_OC1_SetConfig+0x4e>
 8002904:	68ce      	ldr	r6, [r1, #12]
 8002906:	f023 0308 	bic.w	r3, r3, #8
 800290a:	4333      	orrs	r3, r6
 800290c:	42a8      	cmp	r0, r5
 800290e:	f023 0304 	bic.w	r3, r3, #4
 8002912:	d002      	beq.n	800291a <TIM_OC1_SetConfig+0x42>
 8002914:	4d08      	ldr	r5, [pc, #32]	; (8002938 <TIM_OC1_SetConfig+0x60>)
 8002916:	42a8      	cmp	r0, r5
 8002918:	d105      	bne.n	8002926 <TIM_OC1_SetConfig+0x4e>
 800291a:	e9d1 5605 	ldrd	r5, r6, [r1, #20]
 800291e:	f424 7440 	bic.w	r4, r4, #768	; 0x300
 8002922:	4335      	orrs	r5, r6
 8002924:	432c      	orrs	r4, r5
 8002926:	6044      	str	r4, [r0, #4]
 8002928:	6182      	str	r2, [r0, #24]
 800292a:	684a      	ldr	r2, [r1, #4]
 800292c:	6342      	str	r2, [r0, #52]	; 0x34
 800292e:	6203      	str	r3, [r0, #32]
 8002930:	bd70      	pop	{r4, r5, r6, pc}
 8002932:	bf00      	nop
 8002934:	40012c00 	.word	0x40012c00
 8002938:	40013400 	.word	0x40013400

0800293c <TIM_OC3_SetConfig>:
 800293c:	6a03      	ldr	r3, [r0, #32]
 800293e:	b570      	push	{r4, r5, r6, lr}
 8002940:	f423 7380 	bic.w	r3, r3, #256	; 0x100
 8002944:	6203      	str	r3, [r0, #32]
 8002946:	6a03      	ldr	r3, [r0, #32]
 8002948:	6844      	ldr	r4, [r0, #4]
 800294a:	69c2      	ldr	r2, [r0, #28]
 800294c:	680d      	ldr	r5, [r1, #0]
 800294e:	f022 0273 	bic.w	r2, r2, #115	; 0x73
 8002952:	432a      	orrs	r2, r5
 8002954:	688d      	ldr	r5, [r1, #8]
 8002956:	f423 7300 	bic.w	r3, r3, #512	; 0x200
 800295a:	ea43 2305 	orr.w	r3, r3, r5, lsl #8
 800295e:	4d11      	ldr	r5, [pc, #68]	; (80029a4 <TIM_OC3_SetConfig+0x68>)
 8002960:	42a8      	cmp	r0, r5
 8002962:	d003      	beq.n	800296c <TIM_OC3_SetConfig+0x30>
 8002964:	f505 6500 	add.w	r5, r5, #2048	; 0x800
 8002968:	42a8      	cmp	r0, r5
 800296a:	d114      	bne.n	8002996 <TIM_OC3_SetConfig+0x5a>
 800296c:	68cd      	ldr	r5, [r1, #12]
 800296e:	f423 6300 	bic.w	r3, r3, #2048	; 0x800
 8002972:	ea43 2305 	orr.w	r3, r3, r5, lsl #8
 8002976:	4d0b      	ldr	r5, [pc, #44]	; (80029a4 <TIM_OC3_SetConfig+0x68>)
 8002978:	f423 6380 	bic.w	r3, r3, #1024	; 0x400
 800297c:	42a8      	cmp	r0, r5
 800297e:	d003      	beq.n	8002988 <TIM_OC3_SetConfig+0x4c>
 8002980:	f505 6500 	add.w	r5, r5, #2048	; 0x800
 8002984:	42a8      	cmp	r0, r5
 8002986:	d106      	bne.n	8002996 <TIM_OC3_SetConfig+0x5a>
 8002988:	e9d1 5605 	ldrd	r5, r6, [r1, #20]
 800298c:	f424 5440 	bic.w	r4, r4, #12288	; 0x3000
 8002990:	4335      	orrs	r5, r6
 8002992:	ea44 1405 	orr.w	r4, r4, r5, lsl #4
 8002996:	6044      	str	r4, [r0, #4]
 8002998:	61c2      	str	r2, [r0, #28]
 800299a:	684a      	ldr	r2, [r1, #4]
 800299c:	63c2      	str	r2, [r0, #60]	; 0x3c
 800299e:	6203      	str	r3, [r0, #32]
 80029a0:	bd70      	pop	{r4, r5, r6, pc}
 80029a2:	bf00      	nop
 80029a4:	40012c00 	.word	0x40012c00

080029a8 <TIM_OC4_SetConfig>:
 80029a8:	6a03      	ldr	r3, [r0, #32]
 80029aa:	b530      	push	{r4, r5, lr}
 80029ac:	f423 5380 	bic.w	r3, r3, #4096	; 0x1000
 80029b0:	6203      	str	r3, [r0, #32]
 80029b2:	6a03      	ldr	r3, [r0, #32]
 80029b4:	6844      	ldr	r4, [r0, #4]
 80029b6:	69c2      	ldr	r2, [r0, #28]
 80029b8:	680d      	ldr	r5, [r1, #0]
 80029ba:	f422 42e6 	bic.w	r2, r2, #29440	; 0x7300
 80029be:	ea42 2205 	orr.w	r2, r2, r5, lsl #8
 80029c2:	688d      	ldr	r5, [r1, #8]
 80029c4:	f423 5300 	bic.w	r3, r3, #8192	; 0x2000
 80029c8:	ea43 3305 	orr.w	r3, r3, r5, lsl #12
 80029cc:	4d08      	ldr	r5, [pc, #32]	; (80029f0 <TIM_OC4_SetConfig+0x48>)
 80029ce:	42a8      	cmp	r0, r5
 80029d0:	d003      	beq.n	80029da <TIM_OC4_SetConfig+0x32>
 80029d2:	f505 6500 	add.w	r5, r5, #2048	; 0x800
 80029d6:	42a8      	cmp	r0, r5
 80029d8:	d104      	bne.n	80029e4 <TIM_OC4_SetConfig+0x3c>
 80029da:	694d      	ldr	r5, [r1, #20]
 80029dc:	f424 4480 	bic.w	r4, r4, #16384	; 0x4000
 80029e0:	ea44 1485 	orr.w	r4, r4, r5, lsl #6
 80029e4:	6044      	str	r4, [r0, #4]
 80029e6:	61c2      	str	r2, [r0, #28]
 80029e8:	684a      	ldr	r2, [r1, #4]
 80029ea:	6402      	str	r2, [r0, #64]	; 0x40
 80029ec:	6203      	str	r3, [r0, #32]
 80029ee:	bd30      	pop	{r4, r5, pc}
 80029f0:	40012c00 	.word	0x40012c00

080029f4 <HAL_TIM_PWM_MspInit>:
 80029f4:	4770      	bx	lr

080029f6 <HAL_TIM_Encoder_Start>:
 80029f6:	4603      	mov	r3, r0
 80029f8:	b530      	push	{r4, r5, lr}
 80029fa:	f890 203e 	ldrb.w	r2, [r0, #62]	; 0x3e
 80029fe:	f890 003f 	ldrb.w	r0, [r0, #63]	; 0x3f
 8002a02:	f893 5042 	ldrb.w	r5, [r3, #66]	; 0x42
 8002a06:	f893 4043 	ldrb.w	r4, [r3, #67]	; 0x43
 8002a0a:	b2d2      	uxtb	r2, r2
 8002a0c:	b2c0      	uxtb	r0, r0
 8002a0e:	b2ed      	uxtb	r5, r5
 8002a10:	b2e4      	uxtb	r4, r4
 8002a12:	b9c1      	cbnz	r1, 8002a46 <HAL_TIM_Encoder_Start+0x50>
 8002a14:	2a01      	cmp	r2, #1
 8002a16:	d145      	bne.n	8002aa4 <HAL_TIM_Encoder_Start+0xae>
 8002a18:	2d01      	cmp	r5, #1
 8002a1a:	d145      	bne.n	8002aa8 <HAL_TIM_Encoder_Start+0xb2>
 8002a1c:	2202      	movs	r2, #2
 8002a1e:	f883 203e 	strb.w	r2, [r3, #62]	; 0x3e
 8002a22:	f883 2042 	strb.w	r2, [r3, #66]	; 0x42
 8002a26:	681a      	ldr	r2, [r3, #0]
 8002a28:	6a11      	ldr	r1, [r2, #32]
 8002a2a:	f021 0101 	bic.w	r1, r1, #1
 8002a2e:	6211      	str	r1, [r2, #32]
 8002a30:	6a11      	ldr	r1, [r2, #32]
 8002a32:	f041 0101 	orr.w	r1, r1, #1
 8002a36:	2000      	movs	r0, #0
 8002a38:	6211      	str	r1, [r2, #32]
 8002a3a:	681a      	ldr	r2, [r3, #0]
 8002a3c:	6813      	ldr	r3, [r2, #0]
 8002a3e:	f043 0301 	orr.w	r3, r3, #1
 8002a42:	6013      	str	r3, [r2, #0]
 8002a44:	bd30      	pop	{r4, r5, pc}
 8002a46:	2904      	cmp	r1, #4
 8002a48:	d111      	bne.n	8002a6e <HAL_TIM_Encoder_Start+0x78>
 8002a4a:	2801      	cmp	r0, #1
 8002a4c:	d12a      	bne.n	8002aa4 <HAL_TIM_Encoder_Start+0xae>
 8002a4e:	2c01      	cmp	r4, #1
 8002a50:	d1f8      	bne.n	8002a44 <HAL_TIM_Encoder_Start+0x4e>
 8002a52:	2202      	movs	r2, #2
 8002a54:	f883 203f 	strb.w	r2, [r3, #63]	; 0x3f
 8002a58:	f883 2043 	strb.w	r2, [r3, #67]	; 0x43
 8002a5c:	681a      	ldr	r2, [r3, #0]
 8002a5e:	6a11      	ldr	r1, [r2, #32]
 8002a60:	f021 0110 	bic.w	r1, r1, #16
 8002a64:	6211      	str	r1, [r2, #32]
 8002a66:	6a11      	ldr	r1, [r2, #32]
 8002a68:	f041 0110 	orr.w	r1, r1, #16
 8002a6c:	e7e3      	b.n	8002a36 <HAL_TIM_Encoder_Start+0x40>
 8002a6e:	2a01      	cmp	r2, #1
 8002a70:	d118      	bne.n	8002aa4 <HAL_TIM_Encoder_Start+0xae>
 8002a72:	2801      	cmp	r0, #1
 8002a74:	d118      	bne.n	8002aa8 <HAL_TIM_Encoder_Start+0xb2>
 8002a76:	2d01      	cmp	r5, #1
 8002a78:	d1e4      	bne.n	8002a44 <HAL_TIM_Encoder_Start+0x4e>
 8002a7a:	2c01      	cmp	r4, #1
 8002a7c:	d1e2      	bne.n	8002a44 <HAL_TIM_Encoder_Start+0x4e>
 8002a7e:	2202      	movs	r2, #2
 8002a80:	f883 203e 	strb.w	r2, [r3, #62]	; 0x3e
 8002a84:	f883 203f 	strb.w	r2, [r3, #63]	; 0x3f
 8002a88:	f883 2042 	strb.w	r2, [r3, #66]	; 0x42
 8002a8c:	f883 2043 	strb.w	r2, [r3, #67]	; 0x43
 8002a90:	681a      	ldr	r2, [r3, #0]
 8002a92:	6a11      	ldr	r1, [r2, #32]
 8002a94:	f021 0101 	bic.w	r1, r1, #1
 8002a98:	6211      	str	r1, [r2, #32]
 8002a9a:	6a11      	ldr	r1, [r2, #32]
 8002a9c:	f041 0101 	orr.w	r1, r1, #1
 8002aa0:	6211      	str	r1, [r2, #32]
 8002aa2:	e7dc      	b.n	8002a5e <HAL_TIM_Encoder_Start+0x68>
 8002aa4:	2001      	movs	r0, #1
 8002aa6:	e7cd      	b.n	8002a44 <HAL_TIM_Encoder_Start+0x4e>
 8002aa8:	4610      	mov	r0, r2
 8002aaa:	e7cb      	b.n	8002a44 <HAL_TIM_Encoder_Start+0x4e>

08002aac <TIM_Base_SetConfig>:
 8002aac:	4a24      	ldr	r2, [pc, #144]	; (8002b40 <TIM_Base_SetConfig+0x94>)
 8002aae:	6803      	ldr	r3, [r0, #0]
 8002ab0:	4290      	cmp	r0, r2
 8002ab2:	d012      	beq.n	8002ada <TIM_Base_SetConfig+0x2e>
 8002ab4:	f502 6200 	add.w	r2, r2, #2048	; 0x800
 8002ab8:	4290      	cmp	r0, r2
 8002aba:	d00e      	beq.n	8002ada <TIM_Base_SetConfig+0x2e>
 8002abc:	f1b0 4f80 	cmp.w	r0, #1073741824	; 0x40000000
 8002ac0:	d00b      	beq.n	8002ada <TIM_Base_SetConfig+0x2e>
 8002ac2:	f5a2 3298 	sub.w	r2, r2, #77824	; 0x13000
 8002ac6:	4290      	cmp	r0, r2
 8002ac8:	d007      	beq.n	8002ada <TIM_Base_SetConfig+0x2e>
 8002aca:	f502 6280 	add.w	r2, r2, #1024	; 0x400
 8002ace:	4290      	cmp	r0, r2
 8002ad0:	d003      	beq.n	8002ada <TIM_Base_SetConfig+0x2e>
 8002ad2:	f502 6280 	add.w	r2, r2, #1024	; 0x400
 8002ad6:	4290      	cmp	r0, r2
 8002ad8:	d11d      	bne.n	8002b16 <TIM_Base_SetConfig+0x6a>
 8002ada:	684a      	ldr	r2, [r1, #4]
 8002adc:	f023 0370 	bic.w	r3, r3, #112	; 0x70
 8002ae0:	4313      	orrs	r3, r2
 8002ae2:	4a17      	ldr	r2, [pc, #92]	; (8002b40 <TIM_Base_SetConfig+0x94>)
 8002ae4:	4290      	cmp	r0, r2
 8002ae6:	d012      	beq.n	8002b0e <TIM_Base_SetConfig+0x62>
 8002ae8:	f502 6200 	add.w	r2, r2, #2048	; 0x800
 8002aec:	4290      	cmp	r0, r2
 8002aee:	d00e      	beq.n	8002b0e <TIM_Base_SetConfig+0x62>
 8002af0:	f1b0 4f80 	cmp.w	r0, #1073741824	; 0x40000000
 8002af4:	d00b      	beq.n	8002b0e <TIM_Base_SetConfig+0x62>
 8002af6:	f5a2 3298 	sub.w	r2, r2, #77824	; 0x13000
 8002afa:	4290      	cmp	r0, r2
 8002afc:	d007      	beq.n	8002b0e <TIM_Base_SetConfig+0x62>
 8002afe:	f502 6280 	add.w	r2, r2, #1024	; 0x400
 8002b02:	4290      	cmp	r0, r2
 8002b04:	d003      	beq.n	8002b0e <TIM_Base_SetConfig+0x62>
 8002b06:	f502 6280 	add.w	r2, r2, #1024	; 0x400
 8002b0a:	4290      	cmp	r0, r2
 8002b0c:	d103      	bne.n	8002b16 <TIM_Base_SetConfig+0x6a>
 8002b0e:	68ca      	ldr	r2, [r1, #12]
 8002b10:	f423 7340 	bic.w	r3, r3, #768	; 0x300
 8002b14:	4313      	orrs	r3, r2
 8002b16:	694a      	ldr	r2, [r1, #20]
 8002b18:	f023 0380 	bic.w	r3, r3, #128	; 0x80
 8002b1c:	4313      	orrs	r3, r2
 8002b1e:	6003      	str	r3, [r0, #0]
 8002b20:	688b      	ldr	r3, [r1, #8]
 8002b22:	62c3      	str	r3, [r0, #44]	; 0x2c
 8002b24:	680b      	ldr	r3, [r1, #0]
 8002b26:	6283      	str	r3, [r0, #40]	; 0x28
 8002b28:	4b05      	ldr	r3, [pc, #20]	; (8002b40 <TIM_Base_SetConfig+0x94>)
 8002b2a:	4298      	cmp	r0, r3
 8002b2c:	d003      	beq.n	8002b36 <TIM_Base_SetConfig+0x8a>
 8002b2e:	f503 6300 	add.w	r3, r3, #2048	; 0x800
 8002b32:	4298      	cmp	r0, r3
 8002b34:	d101      	bne.n	8002b3a <TIM_Base_SetConfig+0x8e>
 8002b36:	690b      	ldr	r3, [r1, #16]
 8002b38:	6303      	str	r3, [r0, #48]	; 0x30
 8002b3a:	2301      	movs	r3, #1
 8002b3c:	6143      	str	r3, [r0, #20]
 8002b3e:	4770      	bx	lr
 8002b40:	40012c00 	.word	0x40012c00

08002b44 <HAL_TIM_Base_Init>:
 8002b44:	b510      	push	{r4, lr}
 8002b46:	4604      	mov	r4, r0
 8002b48:	b330      	cbz	r0, 8002b98 <HAL_TIM_Base_Init+0x54>
 8002b4a:	f890 303d 	ldrb.w	r3, [r0, #61]	; 0x3d
 8002b4e:	f003 02ff 	and.w	r2, r3, #255	; 0xff
 8002b52:	b91b      	cbnz	r3, 8002b5c <HAL_TIM_Base_Init+0x18>
 8002b54:	f880 203c 	strb.w	r2, [r0, #60]	; 0x3c
 8002b58:	f7fe fe3a 	bl	80017d0 <HAL_TIM_Base_MspInit>
 8002b5c:	2302      	movs	r3, #2
 8002b5e:	6820      	ldr	r0, [r4, #0]
 8002b60:	f884 303d 	strb.w	r3, [r4, #61]	; 0x3d
 8002b64:	1d21      	adds	r1, r4, #4
 8002b66:	f7ff ffa1 	bl	8002aac <TIM_Base_SetConfig>
 8002b6a:	2301      	movs	r3, #1
 8002b6c:	2000      	movs	r0, #0
 8002b6e:	f884 3046 	strb.w	r3, [r4, #70]	; 0x46
 8002b72:	f884 303e 	strb.w	r3, [r4, #62]	; 0x3e
 8002b76:	f884 303f 	strb.w	r3, [r4, #63]	; 0x3f
 8002b7a:	f884 3040 	strb.w	r3, [r4, #64]	; 0x40
 8002b7e:	f884 3041 	strb.w	r3, [r4, #65]	; 0x41
 8002b82:	f884 3042 	strb.w	r3, [r4, #66]	; 0x42
 8002b86:	f884 3043 	strb.w	r3, [r4, #67]	; 0x43
 8002b8a:	f884 3044 	strb.w	r3, [r4, #68]	; 0x44
 8002b8e:	f884 3045 	strb.w	r3, [r4, #69]	; 0x45
 8002b92:	f884 303d 	strb.w	r3, [r4, #61]	; 0x3d
 8002b96:	bd10      	pop	{r4, pc}
 8002b98:	2001      	movs	r0, #1
 8002b9a:	e7fc      	b.n	8002b96 <HAL_TIM_Base_Init+0x52>

08002b9c <HAL_TIM_PWM_Init>:
 8002b9c:	b510      	push	{r4, lr}
 8002b9e:	4604      	mov	r4, r0
 8002ba0:	b330      	cbz	r0, 8002bf0 <HAL_TIM_PWM_Init+0x54>
 8002ba2:	f890 303d 	ldrb.w	r3, [r0, #61]	; 0x3d
 8002ba6:	f003 02ff 	and.w	r2, r3, #255	; 0xff
 8002baa:	b91b      	cbnz	r3, 8002bb4 <HAL_TIM_PWM_Init+0x18>
 8002bac:	f880 203c 	strb.w	r2, [r0, #60]	; 0x3c
 8002bb0:	f7ff ff20 	bl	80029f4 <HAL_TIM_PWM_MspInit>
 8002bb4:	2302      	movs	r3, #2
 8002bb6:	6820      	ldr	r0, [r4, #0]
 8002bb8:	f884 303d 	strb.w	r3, [r4, #61]	; 0x3d
 8002bbc:	1d21      	adds	r1, r4, #4
 8002bbe:	f7ff ff75 	bl	8002aac <TIM_Base_SetConfig>
 8002bc2:	2301      	movs	r3, #1
 8002bc4:	2000      	movs	r0, #0
 8002bc6:	f884 3046 	strb.w	r3, [r4, #70]	; 0x46
 8002bca:	f884 303e 	strb.w	r3, [r4, #62]	; 0x3e
 8002bce:	f884 303f 	strb.w	r3, [r4, #63]	; 0x3f
 8002bd2:	f884 3040 	strb.w	r3, [r4, #64]	; 0x40
 8002bd6:	f884 3041 	strb.w	r3, [r4, #65]	; 0x41
 8002bda:	f884 3042 	strb.w	r3, [r4, #66]	; 0x42
 8002bde:	f884 3043 	strb.w	r3, [r4, #67]	; 0x43
 8002be2:	f884 3044 	strb.w	r3, [r4, #68]	; 0x44
 8002be6:	f884 3045 	strb.w	r3, [r4, #69]	; 0x45
 8002bea:	f884 303d 	strb.w	r3, [r4, #61]	; 0x3d
 8002bee:	bd10      	pop	{r4, pc}
 8002bf0:	2001      	movs	r0, #1
 8002bf2:	e7fc      	b.n	8002bee <HAL_TIM_PWM_Init+0x52>

08002bf4 <HAL_TIM_Encoder_Init>:
 8002bf4:	b5f8      	push	{r3, r4, r5, r6, r7, lr}
 8002bf6:	460d      	mov	r5, r1
 8002bf8:	4604      	mov	r4, r0
 8002bfa:	2800      	cmp	r0, #0
 8002bfc:	d04d      	beq.n	8002c9a <HAL_TIM_Encoder_Init+0xa6>
 8002bfe:	f890 303d 	ldrb.w	r3, [r0, #61]	; 0x3d
 8002c02:	f003 02ff 	and.w	r2, r3, #255	; 0xff
 8002c06:	b91b      	cbnz	r3, 8002c10 <HAL_TIM_Encoder_Init+0x1c>
 8002c08:	f880 203c 	strb.w	r2, [r0, #60]	; 0x3c
 8002c0c:	f7fe fe22 	bl	8001854 <HAL_TIM_Encoder_MspInit>
 8002c10:	2302      	movs	r3, #2
 8002c12:	4621      	mov	r1, r4
 8002c14:	f884 303d 	strb.w	r3, [r4, #61]	; 0x3d
 8002c18:	f851 0b04 	ldr.w	r0, [r1], #4
 8002c1c:	6883      	ldr	r3, [r0, #8]
 8002c1e:	f423 4380 	bic.w	r3, r3, #16384	; 0x4000
 8002c22:	f023 0307 	bic.w	r3, r3, #7
 8002c26:	6083      	str	r3, [r0, #8]
 8002c28:	f7ff ff40 	bl	8002aac <TIM_Base_SetConfig>
 8002c2c:	6820      	ldr	r0, [r4, #0]
 8002c2e:	682b      	ldr	r3, [r5, #0]
 8002c30:	6886      	ldr	r6, [r0, #8]
 8002c32:	6982      	ldr	r2, [r0, #24]
 8002c34:	68a9      	ldr	r1, [r5, #8]
 8002c36:	431e      	orrs	r6, r3
 8002c38:	69ab      	ldr	r3, [r5, #24]
 8002c3a:	f422 7240 	bic.w	r2, r2, #768	; 0x300
 8002c3e:	f022 0203 	bic.w	r2, r2, #3
 8002c42:	ea41 2303 	orr.w	r3, r1, r3, lsl #8
 8002c46:	4313      	orrs	r3, r2
 8002c48:	f423 427c 	bic.w	r2, r3, #64512	; 0xfc00
 8002c4c:	692b      	ldr	r3, [r5, #16]
 8002c4e:	69e9      	ldr	r1, [r5, #28]
 8002c50:	011b      	lsls	r3, r3, #4
 8002c52:	ea43 2301 	orr.w	r3, r3, r1, lsl #8
 8002c56:	68e9      	ldr	r1, [r5, #12]
 8002c58:	6a07      	ldr	r7, [r0, #32]
 8002c5a:	430b      	orrs	r3, r1
 8002c5c:	6a29      	ldr	r1, [r5, #32]
 8002c5e:	f022 02fc 	bic.w	r2, r2, #252	; 0xfc
 8002c62:	ea43 3301 	orr.w	r3, r3, r1, lsl #12
 8002c66:	4313      	orrs	r3, r2
 8002c68:	6969      	ldr	r1, [r5, #20]
 8002c6a:	f027 0222 	bic.w	r2, r7, #34	; 0x22
 8002c6e:	686f      	ldr	r7, [r5, #4]
 8002c70:	6086      	str	r6, [r0, #8]
 8002c72:	ea47 1701 	orr.w	r7, r7, r1, lsl #4
 8002c76:	6183      	str	r3, [r0, #24]
 8002c78:	4317      	orrs	r7, r2
 8002c7a:	2301      	movs	r3, #1
 8002c7c:	6207      	str	r7, [r0, #32]
 8002c7e:	2000      	movs	r0, #0
 8002c80:	f884 3046 	strb.w	r3, [r4, #70]	; 0x46
 8002c84:	f884 303e 	strb.w	r3, [r4, #62]	; 0x3e
 8002c88:	f884 303f 	strb.w	r3, [r4, #63]	; 0x3f
 8002c8c:	f884 3042 	strb.w	r3, [r4, #66]	; 0x42
 8002c90:	f884 3043 	strb.w	r3, [r4, #67]	; 0x43
 8002c94:	f884 303d 	strb.w	r3, [r4, #61]	; 0x3d
 8002c98:	bdf8      	pop	{r3, r4, r5, r6, r7, pc}
 8002c9a:	2001      	movs	r0, #1
 8002c9c:	e7fc      	b.n	8002c98 <HAL_TIM_Encoder_Init+0xa4>
	...

08002ca0 <TIM_OC2_SetConfig>:
 8002ca0:	6a03      	ldr	r3, [r0, #32]
 8002ca2:	b570      	push	{r4, r5, r6, lr}
 8002ca4:	f023 0310 	bic.w	r3, r3, #16
 8002ca8:	6203      	str	r3, [r0, #32]
 8002caa:	6a03      	ldr	r3, [r0, #32]
 8002cac:	6844      	ldr	r4, [r0, #4]
 8002cae:	6982      	ldr	r2, [r0, #24]
 8002cb0:	680d      	ldr	r5, [r1, #0]
 8002cb2:	f422 42e6 	bic.w	r2, r2, #29440	; 0x7300
 8002cb6:	ea42 2205 	orr.w	r2, r2, r5, lsl #8
 8002cba:	688d      	ldr	r5, [r1, #8]
 8002cbc:	f023 0320 	bic.w	r3, r3, #32
 8002cc0:	ea43 1305 	orr.w	r3, r3, r5, lsl #4
 8002cc4:	4d10      	ldr	r5, [pc, #64]	; (8002d08 <TIM_OC2_SetConfig+0x68>)
 8002cc6:	42a8      	cmp	r0, r5
 8002cc8:	d003      	beq.n	8002cd2 <TIM_OC2_SetConfig+0x32>
 8002cca:	f505 6500 	add.w	r5, r5, #2048	; 0x800
 8002cce:	42a8      	cmp	r0, r5
 8002cd0:	d114      	bne.n	8002cfc <TIM_OC2_SetConfig+0x5c>
 8002cd2:	68cd      	ldr	r5, [r1, #12]
 8002cd4:	f023 0380 	bic.w	r3, r3, #128	; 0x80
 8002cd8:	ea43 1305 	orr.w	r3, r3, r5, lsl #4
 8002cdc:	4d0a      	ldr	r5, [pc, #40]	; (8002d08 <TIM_OC2_SetConfig+0x68>)
 8002cde:	f023 0340 	bic.w	r3, r3, #64	; 0x40
 8002ce2:	42a8      	cmp	r0, r5
 8002ce4:	d003      	beq.n	8002cee <TIM_OC2_SetConfig+0x4e>
 8002ce6:	f505 6500 	add.w	r5, r5, #2048	; 0x800
 8002cea:	42a8      	cmp	r0, r5
 8002cec:	d106      	bne.n	8002cfc <TIM_OC2_SetConfig+0x5c>
 8002cee:	e9d1 5605 	ldrd	r5, r6, [r1, #20]
 8002cf2:	f424 6440 	bic.w	r4, r4, #3072	; 0xc00
 8002cf6:	4335      	orrs	r5, r6
 8002cf8:	ea44 0485 	orr.w	r4, r4, r5, lsl #2
 8002cfc:	6044      	str	r4, [r0, #4]
 8002cfe:	6182      	str	r2, [r0, #24]
 8002d00:	684a      	ldr	r2, [r1, #4]
 8002d02:	6382      	str	r2, [r0, #56]	; 0x38
 8002d04:	6203      	str	r3, [r0, #32]
 8002d06:	bd70      	pop	{r4, r5, r6, pc}
 8002d08:	40012c00 	.word	0x40012c00

08002d0c <HAL_TIM_PWM_ConfigChannel>:
 8002d0c:	b538      	push	{r3, r4, r5, lr}
 8002d0e:	f890 303c 	ldrb.w	r3, [r0, #60]	; 0x3c
 8002d12:	4604      	mov	r4, r0
 8002d14:	2b01      	cmp	r3, #1
 8002d16:	d052      	beq.n	8002dbe <HAL_TIM_PWM_ConfigChannel+0xb2>
 8002d18:	2301      	movs	r3, #1
 8002d1a:	2a08      	cmp	r2, #8
 8002d1c:	f880 303c 	strb.w	r3, [r0, #60]	; 0x3c
 8002d20:	d03c      	beq.n	8002d9c <HAL_TIM_PWM_ConfigChannel+0x90>
 8002d22:	d806      	bhi.n	8002d32 <HAL_TIM_PWM_ConfigChannel+0x26>
 8002d24:	b1c2      	cbz	r2, 8002d58 <HAL_TIM_PWM_ConfigChannel+0x4c>
 8002d26:	2a04      	cmp	r2, #4
 8002d28:	d027      	beq.n	8002d7a <HAL_TIM_PWM_ConfigChannel+0x6e>
 8002d2a:	2000      	movs	r0, #0
 8002d2c:	f884 003c 	strb.w	r0, [r4, #60]	; 0x3c
 8002d30:	bd38      	pop	{r3, r4, r5, pc}
 8002d32:	2a0c      	cmp	r2, #12
 8002d34:	d1f9      	bne.n	8002d2a <HAL_TIM_PWM_ConfigChannel+0x1e>
 8002d36:	6800      	ldr	r0, [r0, #0]
 8002d38:	f7ff fe36 	bl	80029a8 <TIM_OC4_SetConfig>
 8002d3c:	6823      	ldr	r3, [r4, #0]
 8002d3e:	6909      	ldr	r1, [r1, #16]
 8002d40:	69da      	ldr	r2, [r3, #28]
 8002d42:	f442 6200 	orr.w	r2, r2, #2048	; 0x800
 8002d46:	61da      	str	r2, [r3, #28]
 8002d48:	69da      	ldr	r2, [r3, #28]
 8002d4a:	f422 6280 	bic.w	r2, r2, #1024	; 0x400
 8002d4e:	61da      	str	r2, [r3, #28]
 8002d50:	69da      	ldr	r2, [r3, #28]
 8002d52:	ea42 2201 	orr.w	r2, r2, r1, lsl #8
 8002d56:	e030      	b.n	8002dba <HAL_TIM_PWM_ConfigChannel+0xae>
 8002d58:	6800      	ldr	r0, [r0, #0]
 8002d5a:	f7ff fdbd 	bl	80028d8 <TIM_OC1_SetConfig>
 8002d5e:	6823      	ldr	r3, [r4, #0]
 8002d60:	6909      	ldr	r1, [r1, #16]
 8002d62:	699a      	ldr	r2, [r3, #24]
 8002d64:	f042 0208 	orr.w	r2, r2, #8
 8002d68:	619a      	str	r2, [r3, #24]
 8002d6a:	699a      	ldr	r2, [r3, #24]
 8002d6c:	f022 0204 	bic.w	r2, r2, #4
 8002d70:	619a      	str	r2, [r3, #24]
 8002d72:	699a      	ldr	r2, [r3, #24]
 8002d74:	430a      	orrs	r2, r1
 8002d76:	619a      	str	r2, [r3, #24]
 8002d78:	e7d7      	b.n	8002d2a <HAL_TIM_PWM_ConfigChannel+0x1e>
 8002d7a:	6800      	ldr	r0, [r0, #0]
 8002d7c:	f7ff ff90 	bl	8002ca0 <TIM_OC2_SetConfig>
 8002d80:	6823      	ldr	r3, [r4, #0]
 8002d82:	6909      	ldr	r1, [r1, #16]
 8002d84:	699a      	ldr	r2, [r3, #24]
 8002d86:	f442 6200 	orr.w	r2, r2, #2048	; 0x800
 8002d8a:	619a      	str	r2, [r3, #24]
 8002d8c:	699a      	ldr	r2, [r3, #24]
 8002d8e:	f422 6280 	bic.w	r2, r2, #1024	; 0x400
 8002d92:	619a      	str	r2, [r3, #24]
 8002d94:	699a      	ldr	r2, [r3, #24]
 8002d96:	ea42 2201 	orr.w	r2, r2, r1, lsl #8
 8002d9a:	e7ec      	b.n	8002d76 <HAL_TIM_PWM_ConfigChannel+0x6a>
 8002d9c:	6800      	ldr	r0, [r0, #0]
 8002d9e:	f7ff fdcd 	bl	800293c <TIM_OC3_SetConfig>
 8002da2:	6823      	ldr	r3, [r4, #0]
 8002da4:	6909      	ldr	r1, [r1, #16]
 8002da6:	69da      	ldr	r2, [r3, #28]
 8002da8:	f042 0208 	orr.w	r2, r2, #8
 8002dac:	61da      	str	r2, [r3, #28]
 8002dae:	69da      	ldr	r2, [r3, #28]
 8002db0:	f022 0204 	bic.w	r2, r2, #4
 8002db4:	61da      	str	r2, [r3, #28]
 8002db6:	69da      	ldr	r2, [r3, #28]
 8002db8:	430a      	orrs	r2, r1
 8002dba:	61da      	str	r2, [r3, #28]
 8002dbc:	e7b5      	b.n	8002d2a <HAL_TIM_PWM_ConfigChannel+0x1e>
 8002dbe:	2002      	movs	r0, #2
 8002dc0:	e7b6      	b.n	8002d30 <HAL_TIM_PWM_ConfigChannel+0x24>

08002dc2 <TIM_ETR_SetConfig>:
 8002dc2:	b510      	push	{r4, lr}
 8002dc4:	6884      	ldr	r4, [r0, #8]
 8002dc6:	430a      	orrs	r2, r1
 8002dc8:	f424 447f 	bic.w	r4, r4, #65280	; 0xff00
 8002dcc:	ea42 2203 	orr.w	r2, r2, r3, lsl #8
 8002dd0:	4322      	orrs	r2, r4
 8002dd2:	6082      	str	r2, [r0, #8]
 8002dd4:	bd10      	pop	{r4, pc}

08002dd6 <HAL_TIM_ConfigClockSource>:
 8002dd6:	b570      	push	{r4, r5, r6, lr}
 8002dd8:	f890 303c 	ldrb.w	r3, [r0, #60]	; 0x3c
 8002ddc:	4604      	mov	r4, r0
 8002dde:	2b01      	cmp	r3, #1
 8002de0:	f04f 0002 	mov.w	r0, #2
 8002de4:	d027      	beq.n	8002e36 <HAL_TIM_ConfigClockSource+0x60>
 8002de6:	2301      	movs	r3, #1
 8002de8:	f884 003d 	strb.w	r0, [r4, #61]	; 0x3d
 8002dec:	6820      	ldr	r0, [r4, #0]
 8002dee:	f884 303c 	strb.w	r3, [r4, #60]	; 0x3c
 8002df2:	6883      	ldr	r3, [r0, #8]
 8002df4:	f423 437f 	bic.w	r3, r3, #65280	; 0xff00
 8002df8:	f023 0377 	bic.w	r3, r3, #119	; 0x77
 8002dfc:	6083      	str	r3, [r0, #8]
 8002dfe:	680b      	ldr	r3, [r1, #0]
 8002e00:	2b60      	cmp	r3, #96	; 0x60
 8002e02:	d04d      	beq.n	8002ea0 <HAL_TIM_ConfigClockSource+0xca>
 8002e04:	d832      	bhi.n	8002e6c <HAL_TIM_ConfigClockSource+0x96>
 8002e06:	2b40      	cmp	r3, #64	; 0x40
 8002e08:	d062      	beq.n	8002ed0 <HAL_TIM_ConfigClockSource+0xfa>
 8002e0a:	d815      	bhi.n	8002e38 <HAL_TIM_ConfigClockSource+0x62>
 8002e0c:	2b20      	cmp	r3, #32
 8002e0e:	d003      	beq.n	8002e18 <HAL_TIM_ConfigClockSource+0x42>
 8002e10:	d809      	bhi.n	8002e26 <HAL_TIM_ConfigClockSource+0x50>
 8002e12:	f033 0210 	bics.w	r2, r3, #16
 8002e16:	d108      	bne.n	8002e2a <HAL_TIM_ConfigClockSource+0x54>
 8002e18:	6882      	ldr	r2, [r0, #8]
 8002e1a:	f022 0270 	bic.w	r2, r2, #112	; 0x70
 8002e1e:	4313      	orrs	r3, r2
 8002e20:	f043 0307 	orr.w	r3, r3, #7
 8002e24:	e020      	b.n	8002e68 <HAL_TIM_ConfigClockSource+0x92>
 8002e26:	2b30      	cmp	r3, #48	; 0x30
 8002e28:	d0f6      	beq.n	8002e18 <HAL_TIM_ConfigClockSource+0x42>
 8002e2a:	2301      	movs	r3, #1
 8002e2c:	2000      	movs	r0, #0
 8002e2e:	f884 303d 	strb.w	r3, [r4, #61]	; 0x3d
 8002e32:	f884 003c 	strb.w	r0, [r4, #60]	; 0x3c
 8002e36:	bd70      	pop	{r4, r5, r6, pc}
 8002e38:	2b50      	cmp	r3, #80	; 0x50
 8002e3a:	d1f6      	bne.n	8002e2a <HAL_TIM_ConfigClockSource+0x54>
 8002e3c:	684a      	ldr	r2, [r1, #4]
 8002e3e:	68ce      	ldr	r6, [r1, #12]
 8002e40:	6a01      	ldr	r1, [r0, #32]
 8002e42:	6a05      	ldr	r5, [r0, #32]
 8002e44:	f021 010a 	bic.w	r1, r1, #10
 8002e48:	f025 0501 	bic.w	r5, r5, #1
 8002e4c:	6205      	str	r5, [r0, #32]
 8002e4e:	6983      	ldr	r3, [r0, #24]
 8002e50:	430a      	orrs	r2, r1
 8002e52:	f023 03f0 	bic.w	r3, r3, #240	; 0xf0
 8002e56:	ea43 1306 	orr.w	r3, r3, r6, lsl #4
 8002e5a:	6183      	str	r3, [r0, #24]
 8002e5c:	6202      	str	r2, [r0, #32]
 8002e5e:	6883      	ldr	r3, [r0, #8]
 8002e60:	f023 0370 	bic.w	r3, r3, #112	; 0x70
 8002e64:	f043 0357 	orr.w	r3, r3, #87	; 0x57
 8002e68:	6083      	str	r3, [r0, #8]
 8002e6a:	e7de      	b.n	8002e2a <HAL_TIM_ConfigClockSource+0x54>
 8002e6c:	2b70      	cmp	r3, #112	; 0x70
 8002e6e:	d00c      	beq.n	8002e8a <HAL_TIM_ConfigClockSource+0xb4>
 8002e70:	f5b3 5f00 	cmp.w	r3, #8192	; 0x2000
 8002e74:	d1d9      	bne.n	8002e2a <HAL_TIM_ConfigClockSource+0x54>
 8002e76:	68cb      	ldr	r3, [r1, #12]
 8002e78:	e9d1 2101 	ldrd	r2, r1, [r1, #4]
 8002e7c:	f7ff ffa1 	bl	8002dc2 <TIM_ETR_SetConfig>
 8002e80:	6822      	ldr	r2, [r4, #0]
 8002e82:	6893      	ldr	r3, [r2, #8]
 8002e84:	f443 4380 	orr.w	r3, r3, #16384	; 0x4000
 8002e88:	e008      	b.n	8002e9c <HAL_TIM_ConfigClockSource+0xc6>
 8002e8a:	68cb      	ldr	r3, [r1, #12]
 8002e8c:	e9d1 2101 	ldrd	r2, r1, [r1, #4]
 8002e90:	f7ff ff97 	bl	8002dc2 <TIM_ETR_SetConfig>
 8002e94:	6822      	ldr	r2, [r4, #0]
 8002e96:	6893      	ldr	r3, [r2, #8]
 8002e98:	f043 0377 	orr.w	r3, r3, #119	; 0x77
 8002e9c:	6093      	str	r3, [r2, #8]
 8002e9e:	e7c4      	b.n	8002e2a <HAL_TIM_ConfigClockSource+0x54>
 8002ea0:	684d      	ldr	r5, [r1, #4]
 8002ea2:	68ce      	ldr	r6, [r1, #12]
 8002ea4:	6a01      	ldr	r1, [r0, #32]
 8002ea6:	f021 0110 	bic.w	r1, r1, #16
 8002eaa:	6201      	str	r1, [r0, #32]
 8002eac:	6982      	ldr	r2, [r0, #24]
 8002eae:	6a03      	ldr	r3, [r0, #32]
 8002eb0:	f422 4270 	bic.w	r2, r2, #61440	; 0xf000
 8002eb4:	f023 03a0 	bic.w	r3, r3, #160	; 0xa0
 8002eb8:	ea43 1305 	orr.w	r3, r3, r5, lsl #4
 8002ebc:	ea42 3206 	orr.w	r2, r2, r6, lsl #12
 8002ec0:	6182      	str	r2, [r0, #24]
 8002ec2:	6203      	str	r3, [r0, #32]
 8002ec4:	6883      	ldr	r3, [r0, #8]
 8002ec6:	f023 0370 	bic.w	r3, r3, #112	; 0x70
 8002eca:	f043 0367 	orr.w	r3, r3, #103	; 0x67
 8002ece:	e7cb      	b.n	8002e68 <HAL_TIM_ConfigClockSource+0x92>
 8002ed0:	684a      	ldr	r2, [r1, #4]
 8002ed2:	68ce      	ldr	r6, [r1, #12]
 8002ed4:	6a01      	ldr	r1, [r0, #32]
 8002ed6:	6a05      	ldr	r5, [r0, #32]
 8002ed8:	f021 010a 	bic.w	r1, r1, #10
 8002edc:	f025 0501 	bic.w	r5, r5, #1
 8002ee0:	6205      	str	r5, [r0, #32]
 8002ee2:	6983      	ldr	r3, [r0, #24]
 8002ee4:	430a      	orrs	r2, r1
 8002ee6:	f023 03f0 	bic.w	r3, r3, #240	; 0xf0
 8002eea:	ea43 1306 	orr.w	r3, r3, r6, lsl #4
 8002eee:	6183      	str	r3, [r0, #24]
 8002ef0:	6202      	str	r2, [r0, #32]
 8002ef2:	6883      	ldr	r3, [r0, #8]
 8002ef4:	f023 0370 	bic.w	r3, r3, #112	; 0x70
 8002ef8:	f043 0347 	orr.w	r3, r3, #71	; 0x47
 8002efc:	e7b4      	b.n	8002e68 <HAL_TIM_ConfigClockSource+0x92>

08002efe <TIM_CCxChannelCmd>:
 8002efe:	b510      	push	{r4, lr}
 8002f00:	2401      	movs	r4, #1
 8002f02:	6a03      	ldr	r3, [r0, #32]
 8002f04:	f001 011f 	and.w	r1, r1, #31
 8002f08:	408c      	lsls	r4, r1
 8002f0a:	ea23 0304 	bic.w	r3, r3, r4
 8002f0e:	6203      	str	r3, [r0, #32]
 8002f10:	6a03      	ldr	r3, [r0, #32]
 8002f12:	408a      	lsls	r2, r1
 8002f14:	431a      	orrs	r2, r3
 8002f16:	6202      	str	r2, [r0, #32]
 8002f18:	bd10      	pop	{r4, pc}
	...

08002f1c <HAL_TIM_OC_Start>:
 8002f1c:	b510      	push	{r4, lr}
 8002f1e:	4604      	mov	r4, r0
 8002f20:	b929      	cbnz	r1, 8002f2e <HAL_TIM_OC_Start+0x12>
 8002f22:	f890 303e 	ldrb.w	r3, [r0, #62]	; 0x3e
 8002f26:	2b01      	cmp	r3, #1
 8002f28:	d01d      	beq.n	8002f66 <HAL_TIM_OC_Start+0x4a>
 8002f2a:	2001      	movs	r0, #1
 8002f2c:	e032      	b.n	8002f94 <HAL_TIM_OC_Start+0x78>
 8002f2e:	2904      	cmp	r1, #4
 8002f30:	d107      	bne.n	8002f42 <HAL_TIM_OC_Start+0x26>
 8002f32:	f890 303f 	ldrb.w	r3, [r0, #63]	; 0x3f
 8002f36:	2b01      	cmp	r3, #1
 8002f38:	d1f7      	bne.n	8002f2a <HAL_TIM_OC_Start+0xe>
 8002f3a:	2302      	movs	r3, #2
 8002f3c:	f880 303f 	strb.w	r3, [r0, #63]	; 0x3f
 8002f40:	e014      	b.n	8002f6c <HAL_TIM_OC_Start+0x50>
 8002f42:	2908      	cmp	r1, #8
 8002f44:	d107      	bne.n	8002f56 <HAL_TIM_OC_Start+0x3a>
 8002f46:	f890 3040 	ldrb.w	r3, [r0, #64]	; 0x40
 8002f4a:	2b01      	cmp	r3, #1
 8002f4c:	d1ed      	bne.n	8002f2a <HAL_TIM_OC_Start+0xe>
 8002f4e:	2302      	movs	r3, #2
 8002f50:	f880 3040 	strb.w	r3, [r0, #64]	; 0x40
 8002f54:	e00a      	b.n	8002f6c <HAL_TIM_OC_Start+0x50>
 8002f56:	f890 3041 	ldrb.w	r3, [r0, #65]	; 0x41
 8002f5a:	2b01      	cmp	r3, #1
 8002f5c:	d1e5      	bne.n	8002f2a <HAL_TIM_OC_Start+0xe>
 8002f5e:	2302      	movs	r3, #2
 8002f60:	f880 3041 	strb.w	r3, [r0, #65]	; 0x41
 8002f64:	e002      	b.n	8002f6c <HAL_TIM_OC_Start+0x50>
 8002f66:	2302      	movs	r3, #2
 8002f68:	f880 303e 	strb.w	r3, [r0, #62]	; 0x3e
 8002f6c:	2201      	movs	r2, #1
 8002f6e:	6820      	ldr	r0, [r4, #0]
 8002f70:	f7ff ffc5 	bl	8002efe <TIM_CCxChannelCmd>
 8002f74:	6823      	ldr	r3, [r4, #0]
 8002f76:	4a15      	ldr	r2, [pc, #84]	; (8002fcc <HAL_TIM_OC_Start+0xb0>)
 8002f78:	4293      	cmp	r3, r2
 8002f7a:	d00c      	beq.n	8002f96 <HAL_TIM_OC_Start+0x7a>
 8002f7c:	4914      	ldr	r1, [pc, #80]	; (8002fd0 <HAL_TIM_OC_Start+0xb4>)
 8002f7e:	428b      	cmp	r3, r1
 8002f80:	d009      	beq.n	8002f96 <HAL_TIM_OC_Start+0x7a>
 8002f82:	f1b3 4f80 	cmp.w	r3, #1073741824	; 0x40000000
 8002f86:	d110      	bne.n	8002faa <HAL_TIM_OC_Start+0x8e>
 8002f88:	689a      	ldr	r2, [r3, #8]
 8002f8a:	f002 0207 	and.w	r2, r2, #7
 8002f8e:	2a06      	cmp	r2, #6
 8002f90:	d116      	bne.n	8002fc0 <HAL_TIM_OC_Start+0xa4>
 8002f92:	2000      	movs	r0, #0
 8002f94:	bd10      	pop	{r4, pc}
 8002f96:	6c59      	ldr	r1, [r3, #68]	; 0x44
 8002f98:	4293      	cmp	r3, r2
 8002f9a:	f441 4100 	orr.w	r1, r1, #32768	; 0x8000
 8002f9e:	6459      	str	r1, [r3, #68]	; 0x44
 8002fa0:	d0f2      	beq.n	8002f88 <HAL_TIM_OC_Start+0x6c>
 8002fa2:	4a0b      	ldr	r2, [pc, #44]	; (8002fd0 <HAL_TIM_OC_Start+0xb4>)
 8002fa4:	4293      	cmp	r3, r2
 8002fa6:	d0ef      	beq.n	8002f88 <HAL_TIM_OC_Start+0x6c>
 8002fa8:	e7eb      	b.n	8002f82 <HAL_TIM_OC_Start+0x66>
 8002faa:	4a0a      	ldr	r2, [pc, #40]	; (8002fd4 <HAL_TIM_OC_Start+0xb8>)
 8002fac:	4293      	cmp	r3, r2
 8002fae:	d0eb      	beq.n	8002f88 <HAL_TIM_OC_Start+0x6c>
 8002fb0:	f502 6280 	add.w	r2, r2, #1024	; 0x400
 8002fb4:	4293      	cmp	r3, r2
 8002fb6:	d0e7      	beq.n	8002f88 <HAL_TIM_OC_Start+0x6c>
 8002fb8:	f502 6280 	add.w	r2, r2, #1024	; 0x400
 8002fbc:	4293      	cmp	r3, r2
 8002fbe:	d0e3      	beq.n	8002f88 <HAL_TIM_OC_Start+0x6c>
 8002fc0:	681a      	ldr	r2, [r3, #0]
 8002fc2:	f042 0201 	orr.w	r2, r2, #1
 8002fc6:	601a      	str	r2, [r3, #0]
 8002fc8:	e7e3      	b.n	8002f92 <HAL_TIM_OC_Start+0x76>
 8002fca:	bf00      	nop
 8002fcc:	40012c00 	.word	0x40012c00
 8002fd0:	40013400 	.word	0x40013400
 8002fd4:	40000400 	.word	0x40000400

08002fd8 <HAL_TIM_PWM_Start>:
 8002fd8:	f7ff bfa0 	b.w	8002f1c <HAL_TIM_OC_Start>

08002fdc <HAL_TIMEx_MasterConfigSynchronization>:
 8002fdc:	b530      	push	{r4, r5, lr}
 8002fde:	f890 303c 	ldrb.w	r3, [r0, #60]	; 0x3c
 8002fe2:	4602      	mov	r2, r0
 8002fe4:	2b01      	cmp	r3, #1
 8002fe6:	f04f 0002 	mov.w	r0, #2
 8002fea:	d02a      	beq.n	8003042 <HAL_TIMEx_MasterConfigSynchronization+0x66>
 8002fec:	6813      	ldr	r3, [r2, #0]
 8002fee:	f882 003d 	strb.w	r0, [r2, #61]	; 0x3d
 8002ff2:	685c      	ldr	r4, [r3, #4]
 8002ff4:	680d      	ldr	r5, [r1, #0]
 8002ff6:	f024 0470 	bic.w	r4, r4, #112	; 0x70
 8002ffa:	432c      	orrs	r4, r5
 8002ffc:	6898      	ldr	r0, [r3, #8]
 8002ffe:	605c      	str	r4, [r3, #4]
 8003000:	4c10      	ldr	r4, [pc, #64]	; (8003044 <HAL_TIMEx_MasterConfigSynchronization+0x68>)
 8003002:	42a3      	cmp	r3, r4
 8003004:	d012      	beq.n	800302c <HAL_TIMEx_MasterConfigSynchronization+0x50>
 8003006:	f504 6400 	add.w	r4, r4, #2048	; 0x800
 800300a:	42a3      	cmp	r3, r4
 800300c:	d00e      	beq.n	800302c <HAL_TIMEx_MasterConfigSynchronization+0x50>
 800300e:	f1b3 4f80 	cmp.w	r3, #1073741824	; 0x40000000
 8003012:	d00b      	beq.n	800302c <HAL_TIMEx_MasterConfigSynchronization+0x50>
 8003014:	f5a4 3498 	sub.w	r4, r4, #77824	; 0x13000
 8003018:	42a3      	cmp	r3, r4
 800301a:	d007      	beq.n	800302c <HAL_TIMEx_MasterConfigSynchronization+0x50>
 800301c:	f504 6480 	add.w	r4, r4, #1024	; 0x400
 8003020:	42a3      	cmp	r3, r4
 8003022:	d003      	beq.n	800302c <HAL_TIMEx_MasterConfigSynchronization+0x50>
 8003024:	f504 6480 	add.w	r4, r4, #1024	; 0x400
 8003028:	42a3      	cmp	r3, r4
 800302a:	d104      	bne.n	8003036 <HAL_TIMEx_MasterConfigSynchronization+0x5a>
 800302c:	6849      	ldr	r1, [r1, #4]
 800302e:	f020 0080 	bic.w	r0, r0, #128	; 0x80
 8003032:	4301      	orrs	r1, r0
 8003034:	6099      	str	r1, [r3, #8]
 8003036:	2301      	movs	r3, #1
 8003038:	2000      	movs	r0, #0
 800303a:	f882 303d 	strb.w	r3, [r2, #61]	; 0x3d
 800303e:	f882 003c 	strb.w	r0, [r2, #60]	; 0x3c
 8003042:	bd30      	pop	{r4, r5, pc}
 8003044:	40012c00 	.word	0x40012c00

08003048 <HAL_TIMEx_ConfigBreakDeadTime>:
 8003048:	f890 303c 	ldrb.w	r3, [r0, #60]	; 0x3c
 800304c:	2b01      	cmp	r3, #1
 800304e:	d01f      	beq.n	8003090 <HAL_TIMEx_ConfigBreakDeadTime+0x48>
 8003050:	68cb      	ldr	r3, [r1, #12]
 8003052:	688a      	ldr	r2, [r1, #8]
 8003054:	f423 7340 	bic.w	r3, r3, #768	; 0x300
 8003058:	4313      	orrs	r3, r2
 800305a:	684a      	ldr	r2, [r1, #4]
 800305c:	f423 6380 	bic.w	r3, r3, #1024	; 0x400
 8003060:	4313      	orrs	r3, r2
 8003062:	680a      	ldr	r2, [r1, #0]
 8003064:	f423 6300 	bic.w	r3, r3, #2048	; 0x800
 8003068:	4313      	orrs	r3, r2
 800306a:	690a      	ldr	r2, [r1, #16]
 800306c:	f423 5380 	bic.w	r3, r3, #4096	; 0x1000
 8003070:	4313      	orrs	r3, r2
 8003072:	694a      	ldr	r2, [r1, #20]
 8003074:	f423 5300 	bic.w	r3, r3, #8192	; 0x2000
 8003078:	4313      	orrs	r3, r2
 800307a:	69ca      	ldr	r2, [r1, #28]
 800307c:	f423 4380 	bic.w	r3, r3, #16384	; 0x4000
 8003080:	4313      	orrs	r3, r2
 8003082:	6802      	ldr	r2, [r0, #0]
 8003084:	6453      	str	r3, [r2, #68]	; 0x44
 8003086:	2300      	movs	r3, #0
 8003088:	f880 303c 	strb.w	r3, [r0, #60]	; 0x3c
 800308c:	4618      	mov	r0, r3
 800308e:	4770      	bx	lr
 8003090:	2002      	movs	r0, #2
 8003092:	4770      	bx	lr

08003094 <UART_EndRxTransfer>:
 8003094:	6803      	ldr	r3, [r0, #0]
 8003096:	68da      	ldr	r2, [r3, #12]
 8003098:	f422 7290 	bic.w	r2, r2, #288	; 0x120
 800309c:	60da      	str	r2, [r3, #12]
 800309e:	695a      	ldr	r2, [r3, #20]
 80030a0:	f022 0201 	bic.w	r2, r2, #1
 80030a4:	615a      	str	r2, [r3, #20]
 80030a6:	6b02      	ldr	r2, [r0, #48]	; 0x30
 80030a8:	2a01      	cmp	r2, #1
 80030aa:	bf02      	ittt	eq
 80030ac:	68da      	ldreq	r2, [r3, #12]
 80030ae:	f022 0210 	biceq.w	r2, r2, #16
 80030b2:	60da      	streq	r2, [r3, #12]
 80030b4:	2320      	movs	r3, #32
 80030b6:	f880 303e 	strb.w	r3, [r0, #62]	; 0x3e
 80030ba:	2300      	movs	r3, #0
 80030bc:	6303      	str	r3, [r0, #48]	; 0x30
 80030be:	4770      	bx	lr

080030c0 <UART_SetConfig>:
 80030c0:	b510      	push	{r4, lr}
 80030c2:	4604      	mov	r4, r0
 80030c4:	6803      	ldr	r3, [r0, #0]
 80030c6:	68c1      	ldr	r1, [r0, #12]
 80030c8:	691a      	ldr	r2, [r3, #16]
 80030ca:	f422 5240 	bic.w	r2, r2, #12288	; 0x3000
 80030ce:	430a      	orrs	r2, r1
 80030d0:	611a      	str	r2, [r3, #16]
 80030d2:	6882      	ldr	r2, [r0, #8]
 80030d4:	6900      	ldr	r0, [r0, #16]
 80030d6:	68d9      	ldr	r1, [r3, #12]
 80030d8:	4302      	orrs	r2, r0
 80030da:	6960      	ldr	r0, [r4, #20]
 80030dc:	f421 51b0 	bic.w	r1, r1, #5632	; 0x1600
 80030e0:	f021 010c 	bic.w	r1, r1, #12
 80030e4:	4302      	orrs	r2, r0
 80030e6:	430a      	orrs	r2, r1
 80030e8:	60da      	str	r2, [r3, #12]
 80030ea:	695a      	ldr	r2, [r3, #20]
 80030ec:	69a1      	ldr	r1, [r4, #24]
 80030ee:	f422 7240 	bic.w	r2, r2, #768	; 0x300
 80030f2:	430a      	orrs	r2, r1
 80030f4:	615a      	str	r2, [r3, #20]
 80030f6:	4a0e      	ldr	r2, [pc, #56]	; (8003130 <UART_SetConfig+0x70>)
 80030f8:	4293      	cmp	r3, r2
 80030fa:	d115      	bne.n	8003128 <UART_SetConfig+0x68>
 80030fc:	f7ff fb64 	bl	80027c8 <HAL_RCC_GetPCLK2Freq>
 8003100:	2319      	movs	r3, #25
 8003102:	4343      	muls	r3, r0
 8003104:	6862      	ldr	r2, [r4, #4]
 8003106:	6820      	ldr	r0, [r4, #0]
 8003108:	0092      	lsls	r2, r2, #2
 800310a:	fbb3 f3f2 	udiv	r3, r3, r2
 800310e:	2264      	movs	r2, #100	; 0x64
 8003110:	fbb3 f1f2 	udiv	r1, r3, r2
 8003114:	fb02 3311 	mls	r3, r2, r1, r3
 8003118:	011b      	lsls	r3, r3, #4
 800311a:	3332      	adds	r3, #50	; 0x32
 800311c:	fbb3 f3f2 	udiv	r3, r3, r2
 8003120:	eb03 1301 	add.w	r3, r3, r1, lsl #4
 8003124:	6083      	str	r3, [r0, #8]
 8003126:	bd10      	pop	{r4, pc}
 8003128:	f7ff fb3e 	bl	80027a8 <HAL_RCC_GetPCLK1Freq>
 800312c:	e7e8      	b.n	8003100 <UART_SetConfig+0x40>
 800312e:	bf00      	nop
 8003130:	40013800 	.word	0x40013800

08003134 <UART_WaitOnFlagUntilTimeout.constprop.0>:
 8003134:	b5f8      	push	{r3, r4, r5, r6, r7, lr}
 8003136:	4604      	mov	r4, r0
 8003138:	460e      	mov	r6, r1
 800313a:	4617      	mov	r7, r2
 800313c:	461d      	mov	r5, r3
 800313e:	6822      	ldr	r2, [r4, #0]
 8003140:	6813      	ldr	r3, [r2, #0]
 8003142:	ea36 0303 	bics.w	r3, r6, r3
 8003146:	d101      	bne.n	800314c <UART_WaitOnFlagUntilTimeout.constprop.0+0x18>
 8003148:	2000      	movs	r0, #0
 800314a:	e014      	b.n	8003176 <UART_WaitOnFlagUntilTimeout.constprop.0+0x42>
 800314c:	1c6b      	adds	r3, r5, #1
 800314e:	d0f7      	beq.n	8003140 <UART_WaitOnFlagUntilTimeout.constprop.0+0xc>
 8003150:	b995      	cbnz	r5, 8003178 <UART_WaitOnFlagUntilTimeout.constprop.0+0x44>
 8003152:	6823      	ldr	r3, [r4, #0]
 8003154:	2003      	movs	r0, #3
 8003156:	68da      	ldr	r2, [r3, #12]
 8003158:	f422 72d0 	bic.w	r2, r2, #416	; 0x1a0
 800315c:	60da      	str	r2, [r3, #12]
 800315e:	695a      	ldr	r2, [r3, #20]
 8003160:	f022 0201 	bic.w	r2, r2, #1
 8003164:	615a      	str	r2, [r3, #20]
 8003166:	2320      	movs	r3, #32
 8003168:	f884 303d 	strb.w	r3, [r4, #61]	; 0x3d
 800316c:	f884 303e 	strb.w	r3, [r4, #62]	; 0x3e
 8003170:	2300      	movs	r3, #0
 8003172:	f884 303c 	strb.w	r3, [r4, #60]	; 0x3c
 8003176:	bdf8      	pop	{r3, r4, r5, r6, r7, pc}
 8003178:	f7fe fd36 	bl	8001be8 <HAL_GetTick>
 800317c:	1bc0      	subs	r0, r0, r7
 800317e:	4285      	cmp	r5, r0
 8003180:	d2dd      	bcs.n	800313e <UART_WaitOnFlagUntilTimeout.constprop.0+0xa>
 8003182:	e7e6      	b.n	8003152 <UART_WaitOnFlagUntilTimeout.constprop.0+0x1e>

08003184 <HAL_UART_Init>:
 8003184:	b510      	push	{r4, lr}
 8003186:	4604      	mov	r4, r0
 8003188:	b340      	cbz	r0, 80031dc <HAL_UART_Init+0x58>
 800318a:	f890 303d 	ldrb.w	r3, [r0, #61]	; 0x3d
 800318e:	f003 02ff 	and.w	r2, r3, #255	; 0xff
 8003192:	b91b      	cbnz	r3, 800319c <HAL_UART_Init+0x18>
 8003194:	f880 203c 	strb.w	r2, [r0, #60]	; 0x3c
 8003198:	f7fe fc36 	bl	8001a08 <HAL_UART_MspInit>
 800319c:	2324      	movs	r3, #36	; 0x24
 800319e:	6822      	ldr	r2, [r4, #0]
 80031a0:	f884 303d 	strb.w	r3, [r4, #61]	; 0x3d
 80031a4:	68d3      	ldr	r3, [r2, #12]
 80031a6:	4620      	mov	r0, r4
 80031a8:	f423 5300 	bic.w	r3, r3, #8192	; 0x2000
 80031ac:	60d3      	str	r3, [r2, #12]
 80031ae:	f7ff ff87 	bl	80030c0 <UART_SetConfig>
 80031b2:	6823      	ldr	r3, [r4, #0]
 80031b4:	2000      	movs	r0, #0
 80031b6:	691a      	ldr	r2, [r3, #16]
 80031b8:	f422 4290 	bic.w	r2, r2, #18432	; 0x4800
 80031bc:	611a      	str	r2, [r3, #16]
 80031be:	695a      	ldr	r2, [r3, #20]
 80031c0:	f022 022a 	bic.w	r2, r2, #42	; 0x2a
 80031c4:	615a      	str	r2, [r3, #20]
 80031c6:	68da      	ldr	r2, [r3, #12]
 80031c8:	f442 5200 	orr.w	r2, r2, #8192	; 0x2000
 80031cc:	60da      	str	r2, [r3, #12]
 80031ce:	2320      	movs	r3, #32
 80031d0:	6420      	str	r0, [r4, #64]	; 0x40
 80031d2:	f884 303d 	strb.w	r3, [r4, #61]	; 0x3d
 80031d6:	f884 303e 	strb.w	r3, [r4, #62]	; 0x3e
 80031da:	bd10      	pop	{r4, pc}
 80031dc:	2001      	movs	r0, #1
 80031de:	e7fc      	b.n	80031da <HAL_UART_Init+0x56>

080031e0 <HAL_UART_Transmit>:
 80031e0:	e92d 43f8 	stmdb	sp!, {r3, r4, r5, r6, r7, r8, r9, lr}
 80031e4:	4699      	mov	r9, r3
 80031e6:	f890 303d 	ldrb.w	r3, [r0, #61]	; 0x3d
 80031ea:	4604      	mov	r4, r0
 80031ec:	2b20      	cmp	r3, #32
 80031ee:	460e      	mov	r6, r1
 80031f0:	4617      	mov	r7, r2
 80031f2:	d148      	bne.n	8003286 <HAL_UART_Transmit+0xa6>
 80031f4:	2900      	cmp	r1, #0
 80031f6:	d044      	beq.n	8003282 <HAL_UART_Transmit+0xa2>
 80031f8:	2a00      	cmp	r2, #0
 80031fa:	d042      	beq.n	8003282 <HAL_UART_Transmit+0xa2>
 80031fc:	f890 303c 	ldrb.w	r3, [r0, #60]	; 0x3c
 8003200:	2b01      	cmp	r3, #1
 8003202:	d040      	beq.n	8003286 <HAL_UART_Transmit+0xa6>
 8003204:	2301      	movs	r3, #1
 8003206:	2500      	movs	r5, #0
 8003208:	f880 303c 	strb.w	r3, [r0, #60]	; 0x3c
 800320c:	2321      	movs	r3, #33	; 0x21
 800320e:	6405      	str	r5, [r0, #64]	; 0x40
 8003210:	f880 303d 	strb.w	r3, [r0, #61]	; 0x3d
 8003214:	f7fe fce8 	bl	8001be8 <HAL_GetTick>
 8003218:	68a3      	ldr	r3, [r4, #8]
 800321a:	4680      	mov	r8, r0
 800321c:	f5b3 5f80 	cmp.w	r3, #4096	; 0x1000
 8003220:	84a7      	strh	r7, [r4, #36]	; 0x24
 8003222:	84e7      	strh	r7, [r4, #38]	; 0x26
 8003224:	d103      	bne.n	800322e <HAL_UART_Transmit+0x4e>
 8003226:	6923      	ldr	r3, [r4, #16]
 8003228:	b90b      	cbnz	r3, 800322e <HAL_UART_Transmit+0x4e>
 800322a:	4635      	mov	r5, r6
 800322c:	461e      	mov	r6, r3
 800322e:	2300      	movs	r3, #0
 8003230:	f884 303c 	strb.w	r3, [r4, #60]	; 0x3c
 8003234:	8ce3      	ldrh	r3, [r4, #38]	; 0x26
 8003236:	b29b      	uxth	r3, r3
 8003238:	b953      	cbnz	r3, 8003250 <HAL_UART_Transmit+0x70>
 800323a:	464b      	mov	r3, r9
 800323c:	4642      	mov	r2, r8
 800323e:	2140      	movs	r1, #64	; 0x40
 8003240:	4620      	mov	r0, r4
 8003242:	f7ff ff77 	bl	8003134 <UART_WaitOnFlagUntilTimeout.constprop.0>
 8003246:	b950      	cbnz	r0, 800325e <HAL_UART_Transmit+0x7e>
 8003248:	2320      	movs	r3, #32
 800324a:	f884 303d 	strb.w	r3, [r4, #61]	; 0x3d
 800324e:	e007      	b.n	8003260 <HAL_UART_Transmit+0x80>
 8003250:	464b      	mov	r3, r9
 8003252:	4642      	mov	r2, r8
 8003254:	2180      	movs	r1, #128	; 0x80
 8003256:	4620      	mov	r0, r4
 8003258:	f7ff ff6c 	bl	8003134 <UART_WaitOnFlagUntilTimeout.constprop.0>
 800325c:	b110      	cbz	r0, 8003264 <HAL_UART_Transmit+0x84>
 800325e:	2003      	movs	r0, #3
 8003260:	e8bd 83f8 	ldmia.w	sp!, {r3, r4, r5, r6, r7, r8, r9, pc}
 8003264:	6822      	ldr	r2, [r4, #0]
 8003266:	b94e      	cbnz	r6, 800327c <HAL_UART_Transmit+0x9c>
 8003268:	f835 3b02 	ldrh.w	r3, [r5], #2
 800326c:	f3c3 0308 	ubfx	r3, r3, #0, #9
 8003270:	6053      	str	r3, [r2, #4]
 8003272:	8ce1      	ldrh	r1, [r4, #38]	; 0x26
 8003274:	3901      	subs	r1, #1
 8003276:	b289      	uxth	r1, r1
 8003278:	84e1      	strh	r1, [r4, #38]	; 0x26
 800327a:	e7db      	b.n	8003234 <HAL_UART_Transmit+0x54>
 800327c:	f816 3b01 	ldrb.w	r3, [r6], #1
 8003280:	e7f6      	b.n	8003270 <HAL_UART_Transmit+0x90>
 8003282:	2001      	movs	r0, #1
 8003284:	e7ec      	b.n	8003260 <HAL_UART_Transmit+0x80>
 8003286:	2002      	movs	r0, #2
 8003288:	e7ea      	b.n	8003260 <HAL_UART_Transmit+0x80>

0800328a <HAL_UART_TxCpltCallback>:
 800328a:	4770      	bx	lr

0800328c <HAL_UART_ErrorCallback>:
 800328c:	4770      	bx	lr

0800328e <UART_DMAAbortOnError>:
 800328e:	b508      	push	{r3, lr}
 8003290:	2300      	movs	r3, #0
 8003292:	6a40      	ldr	r0, [r0, #36]	; 0x24
 8003294:	85c3      	strh	r3, [r0, #46]	; 0x2e
 8003296:	84c3      	strh	r3, [r0, #38]	; 0x26
 8003298:	f7ff fff8 	bl	800328c <HAL_UART_ErrorCallback>
 800329c:	bd08      	pop	{r3, pc}

0800329e <HAL_UARTEx_RxEventCallback>:
 800329e:	4770      	bx	lr

080032a0 <UART_Receive_IT>:
 80032a0:	b513      	push	{r0, r1, r4, lr}
 80032a2:	f890 303e 	ldrb.w	r3, [r0, #62]	; 0x3e
 80032a6:	2b22      	cmp	r3, #34	; 0x22
 80032a8:	d149      	bne.n	800333e <UART_Receive_IT+0x9e>
 80032aa:	6881      	ldr	r1, [r0, #8]
 80032ac:	6a83      	ldr	r3, [r0, #40]	; 0x28
 80032ae:	f5b1 5f80 	cmp.w	r1, #4096	; 0x1000
 80032b2:	6802      	ldr	r2, [r0, #0]
 80032b4:	d133      	bne.n	800331e <UART_Receive_IT+0x7e>
 80032b6:	6901      	ldr	r1, [r0, #16]
 80032b8:	2900      	cmp	r1, #0
 80032ba:	d133      	bne.n	8003324 <UART_Receive_IT+0x84>
 80032bc:	6852      	ldr	r2, [r2, #4]
 80032be:	f3c2 0208 	ubfx	r2, r2, #0, #9
 80032c2:	f823 2b02 	strh.w	r2, [r3], #2
 80032c6:	8dc4      	ldrh	r4, [r0, #46]	; 0x2e
 80032c8:	6283      	str	r3, [r0, #40]	; 0x28
 80032ca:	3c01      	subs	r4, #1
 80032cc:	b2a4      	uxth	r4, r4
 80032ce:	85c4      	strh	r4, [r0, #46]	; 0x2e
 80032d0:	bb1c      	cbnz	r4, 800331a <UART_Receive_IT+0x7a>
 80032d2:	6803      	ldr	r3, [r0, #0]
 80032d4:	68da      	ldr	r2, [r3, #12]
 80032d6:	f022 0220 	bic.w	r2, r2, #32
 80032da:	60da      	str	r2, [r3, #12]
 80032dc:	68da      	ldr	r2, [r3, #12]
 80032de:	f422 7280 	bic.w	r2, r2, #256	; 0x100
 80032e2:	60da      	str	r2, [r3, #12]
 80032e4:	695a      	ldr	r2, [r3, #20]
 80032e6:	f022 0201 	bic.w	r2, r2, #1
 80032ea:	615a      	str	r2, [r3, #20]
 80032ec:	2220      	movs	r2, #32
 80032ee:	f880 203e 	strb.w	r2, [r0, #62]	; 0x3e
 80032f2:	6b02      	ldr	r2, [r0, #48]	; 0x30
 80032f4:	2a01      	cmp	r2, #1
 80032f6:	d11f      	bne.n	8003338 <UART_Receive_IT+0x98>
 80032f8:	6304      	str	r4, [r0, #48]	; 0x30
 80032fa:	68da      	ldr	r2, [r3, #12]
 80032fc:	f022 0210 	bic.w	r2, r2, #16
 8003300:	60da      	str	r2, [r3, #12]
 8003302:	681a      	ldr	r2, [r3, #0]
 8003304:	06d2      	lsls	r2, r2, #27
 8003306:	d505      	bpl.n	8003314 <UART_Receive_IT+0x74>
 8003308:	9401      	str	r4, [sp, #4]
 800330a:	681a      	ldr	r2, [r3, #0]
 800330c:	9201      	str	r2, [sp, #4]
 800330e:	685b      	ldr	r3, [r3, #4]
 8003310:	9301      	str	r3, [sp, #4]
 8003312:	9b01      	ldr	r3, [sp, #4]
 8003314:	8d81      	ldrh	r1, [r0, #44]	; 0x2c
 8003316:	f7ff ffc2 	bl	800329e <HAL_UARTEx_RxEventCallback>
 800331a:	2000      	movs	r0, #0
 800331c:	e010      	b.n	8003340 <UART_Receive_IT+0xa0>
 800331e:	b939      	cbnz	r1, 8003330 <UART_Receive_IT+0x90>
 8003320:	6901      	ldr	r1, [r0, #16]
 8003322:	b929      	cbnz	r1, 8003330 <UART_Receive_IT+0x90>
 8003324:	6852      	ldr	r2, [r2, #4]
 8003326:	b2d2      	uxtb	r2, r2
 8003328:	701a      	strb	r2, [r3, #0]
 800332a:	6a83      	ldr	r3, [r0, #40]	; 0x28
 800332c:	3301      	adds	r3, #1
 800332e:	e7ca      	b.n	80032c6 <UART_Receive_IT+0x26>
 8003330:	6852      	ldr	r2, [r2, #4]
 8003332:	f002 027f 	and.w	r2, r2, #127	; 0x7f
 8003336:	e7f7      	b.n	8003328 <UART_Receive_IT+0x88>
 8003338:	f7fe f882 	bl	8001440 <HAL_UART_RxCpltCallback>
 800333c:	e7ed      	b.n	800331a <UART_Receive_IT+0x7a>
 800333e:	2002      	movs	r0, #2
 8003340:	b002      	add	sp, #8
 8003342:	bd10      	pop	{r4, pc}

08003344 <HAL_UART_IRQHandler>:
 8003344:	6803      	ldr	r3, [r0, #0]
 8003346:	b537      	push	{r0, r1, r2, r4, r5, lr}
 8003348:	681a      	ldr	r2, [r3, #0]
 800334a:	4604      	mov	r4, r0
 800334c:	f012 0f0f 	tst.w	r2, #15
 8003350:	68d9      	ldr	r1, [r3, #12]
 8003352:	695d      	ldr	r5, [r3, #20]
 8003354:	d108      	bne.n	8003368 <HAL_UART_IRQHandler+0x24>
 8003356:	0695      	lsls	r5, r2, #26
 8003358:	d55f      	bpl.n	800341a <HAL_UART_IRQHandler+0xd6>
 800335a:	068d      	lsls	r5, r1, #26
 800335c:	d55d      	bpl.n	800341a <HAL_UART_IRQHandler+0xd6>
 800335e:	b003      	add	sp, #12
 8003360:	e8bd 4030 	ldmia.w	sp!, {r4, r5, lr}
 8003364:	f7ff bf9c 	b.w	80032a0 <UART_Receive_IT>
 8003368:	f005 0001 	and.w	r0, r5, #1
 800336c:	f401 7590 	and.w	r5, r1, #288	; 0x120
 8003370:	4305      	orrs	r5, r0
 8003372:	d052      	beq.n	800341a <HAL_UART_IRQHandler+0xd6>
 8003374:	07d5      	lsls	r5, r2, #31
 8003376:	d505      	bpl.n	8003384 <HAL_UART_IRQHandler+0x40>
 8003378:	05cb      	lsls	r3, r1, #23
 800337a:	bf42      	ittt	mi
 800337c:	6c23      	ldrmi	r3, [r4, #64]	; 0x40
 800337e:	f043 0301 	orrmi.w	r3, r3, #1
 8003382:	6423      	strmi	r3, [r4, #64]	; 0x40
 8003384:	0755      	lsls	r5, r2, #29
 8003386:	d504      	bpl.n	8003392 <HAL_UART_IRQHandler+0x4e>
 8003388:	b118      	cbz	r0, 8003392 <HAL_UART_IRQHandler+0x4e>
 800338a:	6c23      	ldr	r3, [r4, #64]	; 0x40
 800338c:	f043 0302 	orr.w	r3, r3, #2
 8003390:	6423      	str	r3, [r4, #64]	; 0x40
 8003392:	0793      	lsls	r3, r2, #30
 8003394:	d504      	bpl.n	80033a0 <HAL_UART_IRQHandler+0x5c>
 8003396:	b118      	cbz	r0, 80033a0 <HAL_UART_IRQHandler+0x5c>
 8003398:	6c23      	ldr	r3, [r4, #64]	; 0x40
 800339a:	f043 0304 	orr.w	r3, r3, #4
 800339e:	6423      	str	r3, [r4, #64]	; 0x40
 80033a0:	0715      	lsls	r5, r2, #28
 80033a2:	d507      	bpl.n	80033b4 <HAL_UART_IRQHandler+0x70>
 80033a4:	f001 0320 	and.w	r3, r1, #32
 80033a8:	4303      	orrs	r3, r0
 80033aa:	bf1e      	ittt	ne
 80033ac:	6c23      	ldrne	r3, [r4, #64]	; 0x40
 80033ae:	f043 0308 	orrne.w	r3, r3, #8
 80033b2:	6423      	strne	r3, [r4, #64]	; 0x40
 80033b4:	6c23      	ldr	r3, [r4, #64]	; 0x40
 80033b6:	b353      	cbz	r3, 800340e <HAL_UART_IRQHandler+0xca>
 80033b8:	0692      	lsls	r2, r2, #26
 80033ba:	d504      	bpl.n	80033c6 <HAL_UART_IRQHandler+0x82>
 80033bc:	068b      	lsls	r3, r1, #26
 80033be:	d502      	bpl.n	80033c6 <HAL_UART_IRQHandler+0x82>
 80033c0:	4620      	mov	r0, r4
 80033c2:	f7ff ff6d 	bl	80032a0 <UART_Receive_IT>
 80033c6:	6823      	ldr	r3, [r4, #0]
 80033c8:	4620      	mov	r0, r4
 80033ca:	695b      	ldr	r3, [r3, #20]
 80033cc:	6c25      	ldr	r5, [r4, #64]	; 0x40
 80033ce:	f003 0340 	and.w	r3, r3, #64	; 0x40
 80033d2:	f005 0508 	and.w	r5, r5, #8
 80033d6:	431d      	orrs	r5, r3
 80033d8:	d01b      	beq.n	8003412 <HAL_UART_IRQHandler+0xce>
 80033da:	f7ff fe5b 	bl	8003094 <UART_EndRxTransfer>
 80033de:	6823      	ldr	r3, [r4, #0]
 80033e0:	695a      	ldr	r2, [r3, #20]
 80033e2:	0655      	lsls	r5, r2, #25
 80033e4:	d510      	bpl.n	8003408 <HAL_UART_IRQHandler+0xc4>
 80033e6:	695a      	ldr	r2, [r3, #20]
 80033e8:	6ba0      	ldr	r0, [r4, #56]	; 0x38
 80033ea:	f022 0240 	bic.w	r2, r2, #64	; 0x40
 80033ee:	615a      	str	r2, [r3, #20]
 80033f0:	b150      	cbz	r0, 8003408 <HAL_UART_IRQHandler+0xc4>
 80033f2:	4b53      	ldr	r3, [pc, #332]	; (8003540 <HAL_UART_IRQHandler+0x1fc>)
 80033f4:	6343      	str	r3, [r0, #52]	; 0x34
 80033f6:	f7fe fdc3 	bl	8001f80 <HAL_DMA_Abort_IT>
 80033fa:	b140      	cbz	r0, 800340e <HAL_UART_IRQHandler+0xca>
 80033fc:	6ba0      	ldr	r0, [r4, #56]	; 0x38
 80033fe:	6b43      	ldr	r3, [r0, #52]	; 0x34
 8003400:	b003      	add	sp, #12
 8003402:	e8bd 4030 	ldmia.w	sp!, {r4, r5, lr}
 8003406:	4718      	bx	r3
 8003408:	4620      	mov	r0, r4
 800340a:	f7ff ff3f 	bl	800328c <HAL_UART_ErrorCallback>
 800340e:	b003      	add	sp, #12
 8003410:	bd30      	pop	{r4, r5, pc}
 8003412:	f7ff ff3b 	bl	800328c <HAL_UART_ErrorCallback>
 8003416:	6425      	str	r5, [r4, #64]	; 0x40
 8003418:	e7f9      	b.n	800340e <HAL_UART_IRQHandler+0xca>
 800341a:	6b20      	ldr	r0, [r4, #48]	; 0x30
 800341c:	2801      	cmp	r0, #1
 800341e:	d155      	bne.n	80034cc <HAL_UART_IRQHandler+0x188>
 8003420:	06d0      	lsls	r0, r2, #27
 8003422:	d553      	bpl.n	80034cc <HAL_UART_IRQHandler+0x188>
 8003424:	06cd      	lsls	r5, r1, #27
 8003426:	d551      	bpl.n	80034cc <HAL_UART_IRQHandler+0x188>
 8003428:	2100      	movs	r1, #0
 800342a:	9101      	str	r1, [sp, #4]
 800342c:	681a      	ldr	r2, [r3, #0]
 800342e:	9201      	str	r2, [sp, #4]
 8003430:	685a      	ldr	r2, [r3, #4]
 8003432:	9201      	str	r2, [sp, #4]
 8003434:	9a01      	ldr	r2, [sp, #4]
 8003436:	695a      	ldr	r2, [r3, #20]
 8003438:	f012 0240 	ands.w	r2, r2, #64	; 0x40
 800343c:	d02a      	beq.n	8003494 <HAL_UART_IRQHandler+0x150>
 800343e:	6ba0      	ldr	r0, [r4, #56]	; 0x38
 8003440:	6802      	ldr	r2, [r0, #0]
 8003442:	6852      	ldr	r2, [r2, #4]
 8003444:	b292      	uxth	r2, r2
 8003446:	2a00      	cmp	r2, #0
 8003448:	d0e1      	beq.n	800340e <HAL_UART_IRQHandler+0xca>
 800344a:	8da5      	ldrh	r5, [r4, #44]	; 0x2c
 800344c:	4295      	cmp	r5, r2
 800344e:	d9de      	bls.n	800340e <HAL_UART_IRQHandler+0xca>
 8003450:	85e2      	strh	r2, [r4, #46]	; 0x2e
 8003452:	6982      	ldr	r2, [r0, #24]
 8003454:	2a20      	cmp	r2, #32
 8003456:	d015      	beq.n	8003484 <HAL_UART_IRQHandler+0x140>
 8003458:	68da      	ldr	r2, [r3, #12]
 800345a:	f422 7280 	bic.w	r2, r2, #256	; 0x100
 800345e:	60da      	str	r2, [r3, #12]
 8003460:	695a      	ldr	r2, [r3, #20]
 8003462:	f022 0201 	bic.w	r2, r2, #1
 8003466:	615a      	str	r2, [r3, #20]
 8003468:	695a      	ldr	r2, [r3, #20]
 800346a:	f022 0240 	bic.w	r2, r2, #64	; 0x40
 800346e:	615a      	str	r2, [r3, #20]
 8003470:	2220      	movs	r2, #32
 8003472:	f884 203e 	strb.w	r2, [r4, #62]	; 0x3e
 8003476:	6321      	str	r1, [r4, #48]	; 0x30
 8003478:	68da      	ldr	r2, [r3, #12]
 800347a:	f022 0210 	bic.w	r2, r2, #16
 800347e:	60da      	str	r2, [r3, #12]
 8003480:	f7fe fd60 	bl	8001f44 <HAL_DMA_Abort>
 8003484:	8de3      	ldrh	r3, [r4, #46]	; 0x2e
 8003486:	8da1      	ldrh	r1, [r4, #44]	; 0x2c
 8003488:	1ac9      	subs	r1, r1, r3
 800348a:	b289      	uxth	r1, r1
 800348c:	4620      	mov	r0, r4
 800348e:	f7ff ff06 	bl	800329e <HAL_UARTEx_RxEventCallback>
 8003492:	e7bc      	b.n	800340e <HAL_UART_IRQHandler+0xca>
 8003494:	8de1      	ldrh	r1, [r4, #46]	; 0x2e
 8003496:	b288      	uxth	r0, r1
 8003498:	8de1      	ldrh	r1, [r4, #46]	; 0x2e
 800349a:	b289      	uxth	r1, r1
 800349c:	2900      	cmp	r1, #0
 800349e:	d0b6      	beq.n	800340e <HAL_UART_IRQHandler+0xca>
 80034a0:	8da1      	ldrh	r1, [r4, #44]	; 0x2c
 80034a2:	1a09      	subs	r1, r1, r0
 80034a4:	b289      	uxth	r1, r1
 80034a6:	2900      	cmp	r1, #0
 80034a8:	d0b1      	beq.n	800340e <HAL_UART_IRQHandler+0xca>
 80034aa:	68d8      	ldr	r0, [r3, #12]
 80034ac:	f420 7090 	bic.w	r0, r0, #288	; 0x120
 80034b0:	60d8      	str	r0, [r3, #12]
 80034b2:	6958      	ldr	r0, [r3, #20]
 80034b4:	f020 0001 	bic.w	r0, r0, #1
 80034b8:	6158      	str	r0, [r3, #20]
 80034ba:	2020      	movs	r0, #32
 80034bc:	f884 003e 	strb.w	r0, [r4, #62]	; 0x3e
 80034c0:	6322      	str	r2, [r4, #48]	; 0x30
 80034c2:	68da      	ldr	r2, [r3, #12]
 80034c4:	f022 0210 	bic.w	r2, r2, #16
 80034c8:	60da      	str	r2, [r3, #12]
 80034ca:	e7df      	b.n	800348c <HAL_UART_IRQHandler+0x148>
 80034cc:	0610      	lsls	r0, r2, #24
 80034ce:	d526      	bpl.n	800351e <HAL_UART_IRQHandler+0x1da>
 80034d0:	060d      	lsls	r5, r1, #24
 80034d2:	d524      	bpl.n	800351e <HAL_UART_IRQHandler+0x1da>
 80034d4:	f894 203d 	ldrb.w	r2, [r4, #61]	; 0x3d
 80034d8:	2a21      	cmp	r2, #33	; 0x21
 80034da:	d198      	bne.n	800340e <HAL_UART_IRQHandler+0xca>
 80034dc:	68a1      	ldr	r1, [r4, #8]
 80034de:	6a22      	ldr	r2, [r4, #32]
 80034e0:	f5b1 5f80 	cmp.w	r1, #4096	; 0x1000
 80034e4:	d116      	bne.n	8003514 <HAL_UART_IRQHandler+0x1d0>
 80034e6:	6921      	ldr	r1, [r4, #16]
 80034e8:	b9a1      	cbnz	r1, 8003514 <HAL_UART_IRQHandler+0x1d0>
 80034ea:	f832 1b02 	ldrh.w	r1, [r2], #2
 80034ee:	f3c1 0108 	ubfx	r1, r1, #0, #9
 80034f2:	6059      	str	r1, [r3, #4]
 80034f4:	6222      	str	r2, [r4, #32]
 80034f6:	8ce2      	ldrh	r2, [r4, #38]	; 0x26
 80034f8:	3a01      	subs	r2, #1
 80034fa:	b292      	uxth	r2, r2
 80034fc:	84e2      	strh	r2, [r4, #38]	; 0x26
 80034fe:	2a00      	cmp	r2, #0
 8003500:	d185      	bne.n	800340e <HAL_UART_IRQHandler+0xca>
 8003502:	68da      	ldr	r2, [r3, #12]
 8003504:	f022 0280 	bic.w	r2, r2, #128	; 0x80
 8003508:	60da      	str	r2, [r3, #12]
 800350a:	68da      	ldr	r2, [r3, #12]
 800350c:	f042 0240 	orr.w	r2, r2, #64	; 0x40
 8003510:	60da      	str	r2, [r3, #12]
 8003512:	e77c      	b.n	800340e <HAL_UART_IRQHandler+0xca>
 8003514:	1c51      	adds	r1, r2, #1
 8003516:	6221      	str	r1, [r4, #32]
 8003518:	7812      	ldrb	r2, [r2, #0]
 800351a:	605a      	str	r2, [r3, #4]
 800351c:	e7eb      	b.n	80034f6 <HAL_UART_IRQHandler+0x1b2>
 800351e:	0650      	lsls	r0, r2, #25
 8003520:	f57f af75 	bpl.w	800340e <HAL_UART_IRQHandler+0xca>
 8003524:	064a      	lsls	r2, r1, #25
 8003526:	f57f af72 	bpl.w	800340e <HAL_UART_IRQHandler+0xca>
 800352a:	68da      	ldr	r2, [r3, #12]
 800352c:	4620      	mov	r0, r4
 800352e:	f022 0240 	bic.w	r2, r2, #64	; 0x40
 8003532:	60da      	str	r2, [r3, #12]
 8003534:	2320      	movs	r3, #32
 8003536:	f884 303d 	strb.w	r3, [r4, #61]	; 0x3d
 800353a:	f7ff fea6 	bl	800328a <HAL_UART_TxCpltCallback>
 800353e:	e766      	b.n	800340e <HAL_UART_IRQHandler+0xca>
 8003540:	0800328f 	.word	0x0800328f

08003544 <UART_Start_Receive_IT>:
 8003544:	85c2      	strh	r2, [r0, #46]	; 0x2e
 8003546:	8582      	strh	r2, [r0, #44]	; 0x2c
 8003548:	6281      	str	r1, [r0, #40]	; 0x28
 800354a:	4603      	mov	r3, r0
 800354c:	2222      	movs	r2, #34	; 0x22
 800354e:	2000      	movs	r0, #0
 8003550:	6418      	str	r0, [r3, #64]	; 0x40
 8003552:	f883 003c 	strb.w	r0, [r3, #60]	; 0x3c
 8003556:	f883 203e 	strb.w	r2, [r3, #62]	; 0x3e
 800355a:	681b      	ldr	r3, [r3, #0]
 800355c:	68da      	ldr	r2, [r3, #12]
 800355e:	f442 7280 	orr.w	r2, r2, #256	; 0x100
 8003562:	60da      	str	r2, [r3, #12]
 8003564:	695a      	ldr	r2, [r3, #20]
 8003566:	f042 0201 	orr.w	r2, r2, #1
 800356a:	615a      	str	r2, [r3, #20]
 800356c:	68da      	ldr	r2, [r3, #12]
 800356e:	f042 0220 	orr.w	r2, r2, #32
 8003572:	60da      	str	r2, [r3, #12]
 8003574:	4770      	bx	lr

08003576 <HAL_UART_Receive_IT>:
 8003576:	b470      	push	{r4, r5, r6}
 8003578:	f890 603e 	ldrb.w	r6, [r0, #62]	; 0x3e
 800357c:	2e20      	cmp	r6, #32
 800357e:	d110      	bne.n	80035a2 <HAL_UART_Receive_IT+0x2c>
 8003580:	b161      	cbz	r1, 800359c <HAL_UART_Receive_IT+0x26>
 8003582:	b15a      	cbz	r2, 800359c <HAL_UART_Receive_IT+0x26>
 8003584:	f890 403c 	ldrb.w	r4, [r0, #60]	; 0x3c
 8003588:	2c01      	cmp	r4, #1
 800358a:	d00a      	beq.n	80035a2 <HAL_UART_Receive_IT+0x2c>
 800358c:	2401      	movs	r4, #1
 800358e:	f880 403c 	strb.w	r4, [r0, #60]	; 0x3c
 8003592:	2400      	movs	r4, #0
 8003594:	6304      	str	r4, [r0, #48]	; 0x30
 8003596:	bc70      	pop	{r4, r5, r6}
 8003598:	f7ff bfd4 	b.w	8003544 <UART_Start_Receive_IT>
 800359c:	2001      	movs	r0, #1
 800359e:	bc70      	pop	{r4, r5, r6}
 80035a0:	4770      	bx	lr
 80035a2:	2002      	movs	r0, #2
 80035a4:	e7fb      	b.n	800359e <HAL_UART_Receive_IT+0x28>
	...

080035a8 <osKernelInitialize>:
 80035a8:	f3ef 8305 	mrs	r3, IPSR
 80035ac:	b113      	cbz	r3, 80035b4 <osKernelInitialize+0xc>
 80035ae:	f06f 0005 	mvn.w	r0, #5
 80035b2:	4770      	bx	lr
 80035b4:	f3ef 8310 	mrs	r3, PRIMASK
 80035b8:	2b00      	cmp	r3, #0
 80035ba:	d1f8      	bne.n	80035ae <osKernelInitialize+0x6>
 80035bc:	4b07      	ldr	r3, [pc, #28]	; (80035dc <osKernelInitialize+0x34>)
 80035be:	6818      	ldr	r0, [r3, #0]
 80035c0:	2802      	cmp	r0, #2
 80035c2:	d106      	bne.n	80035d2 <osKernelInitialize+0x2a>
 80035c4:	f3ef 8311 	mrs	r3, BASEPRI
 80035c8:	2b00      	cmp	r3, #0
 80035ca:	d1f0      	bne.n	80035ae <osKernelInitialize+0x6>
 80035cc:	f04f 30ff 	mov.w	r0, #4294967295
 80035d0:	4770      	bx	lr
 80035d2:	2800      	cmp	r0, #0
 80035d4:	d1fa      	bne.n	80035cc <osKernelInitialize+0x24>
 80035d6:	2201      	movs	r2, #1
 80035d8:	601a      	str	r2, [r3, #0]
 80035da:	4770      	bx	lr
 80035dc:	200002f4 	.word	0x200002f4

080035e0 <osKernelStart>:
 80035e0:	b510      	push	{r4, lr}
 80035e2:	f3ef 8305 	mrs	r3, IPSR
 80035e6:	b113      	cbz	r3, 80035ee <osKernelStart+0xe>
 80035e8:	f06f 0005 	mvn.w	r0, #5
 80035ec:	bd10      	pop	{r4, pc}
 80035ee:	f3ef 8410 	mrs	r4, PRIMASK
 80035f2:	2c00      	cmp	r4, #0
 80035f4:	d1f8      	bne.n	80035e8 <osKernelStart+0x8>
 80035f6:	4b09      	ldr	r3, [pc, #36]	; (800361c <osKernelStart+0x3c>)
 80035f8:	681a      	ldr	r2, [r3, #0]
 80035fa:	2a02      	cmp	r2, #2
 80035fc:	d106      	bne.n	800360c <osKernelStart+0x2c>
 80035fe:	f3ef 8311 	mrs	r3, BASEPRI
 8003602:	2b00      	cmp	r3, #0
 8003604:	d1f0      	bne.n	80035e8 <osKernelStart+0x8>
 8003606:	f04f 30ff 	mov.w	r0, #4294967295
 800360a:	e7ef      	b.n	80035ec <osKernelStart+0xc>
 800360c:	2a01      	cmp	r2, #1
 800360e:	d1fa      	bne.n	8003606 <osKernelStart+0x26>
 8003610:	2202      	movs	r2, #2
 8003612:	601a      	str	r2, [r3, #0]
 8003614:	f000 fda0 	bl	8004158 <vTaskStartScheduler>
 8003618:	4620      	mov	r0, r4
 800361a:	e7e7      	b.n	80035ec <osKernelStart+0xc>
 800361c:	200002f4 	.word	0x200002f4

08003620 <osThreadNew>:
 8003620:	b5f0      	push	{r4, r5, r6, r7, lr}
 8003622:	4614      	mov	r4, r2
 8003624:	2200      	movs	r2, #0
 8003626:	b087      	sub	sp, #28
 8003628:	460b      	mov	r3, r1
 800362a:	9205      	str	r2, [sp, #20]
 800362c:	f3ef 8205 	mrs	r2, IPSR
 8003630:	bb52      	cbnz	r2, 8003688 <osThreadNew+0x68>
 8003632:	f3ef 8210 	mrs	r2, PRIMASK
 8003636:	bb3a      	cbnz	r2, 8003688 <osThreadNew+0x68>
 8003638:	4a26      	ldr	r2, [pc, #152]	; (80036d4 <osThreadNew+0xb4>)
 800363a:	6812      	ldr	r2, [r2, #0]
 800363c:	2a02      	cmp	r2, #2
 800363e:	d102      	bne.n	8003646 <osThreadNew+0x26>
 8003640:	f3ef 8211 	mrs	r2, BASEPRI
 8003644:	bb02      	cbnz	r2, 8003688 <osThreadNew+0x68>
 8003646:	b1f8      	cbz	r0, 8003688 <osThreadNew+0x68>
 8003648:	2200      	movs	r2, #0
 800364a:	f88d 2013 	strb.w	r2, [sp, #19]
 800364e:	2c00      	cmp	r4, #0
 8003650:	d030      	beq.n	80036b4 <osThreadNew+0x94>
 8003652:	6821      	ldr	r1, [r4, #0]
 8003654:	b909      	cbnz	r1, 800365a <osThreadNew+0x3a>
 8003656:	f10d 0113 	add.w	r1, sp, #19
 800365a:	69a5      	ldr	r5, [r4, #24]
 800365c:	2d00      	cmp	r5, #0
 800365e:	bf08      	it	eq
 8003660:	2518      	moveq	r5, #24
 8003662:	1e6a      	subs	r2, r5, #1
 8003664:	2a37      	cmp	r2, #55	; 0x37
 8003666:	46ac      	mov	ip, r5
 8003668:	d82a      	bhi.n	80036c0 <osThreadNew+0xa0>
 800366a:	6862      	ldr	r2, [r4, #4]
 800366c:	07d2      	lsls	r2, r2, #31
 800366e:	d427      	bmi.n	80036c0 <osThreadNew+0xa0>
 8003670:	6966      	ldr	r6, [r4, #20]
 8003672:	b166      	cbz	r6, 800368e <osThreadNew+0x6e>
 8003674:	08b2      	lsrs	r2, r6, #2
 8003676:	e9d4 7e02 	ldrd	r7, lr, [r4, #8]
 800367a:	b157      	cbz	r7, 8003692 <osThreadNew+0x72>
 800367c:	f1be 0f5b 	cmp.w	lr, #91	; 0x5b
 8003680:	d902      	bls.n	8003688 <osThreadNew+0x68>
 8003682:	6924      	ldr	r4, [r4, #16]
 8003684:	b104      	cbz	r4, 8003688 <osThreadNew+0x68>
 8003686:	b9ee      	cbnz	r6, 80036c4 <osThreadNew+0xa4>
 8003688:	9805      	ldr	r0, [sp, #20]
 800368a:	b007      	add	sp, #28
 800368c:	bdf0      	pop	{r4, r5, r6, r7, pc}
 800368e:	2280      	movs	r2, #128	; 0x80
 8003690:	e7f1      	b.n	8003676 <osThreadNew+0x56>
 8003692:	f1be 0f00 	cmp.w	lr, #0
 8003696:	d1f7      	bne.n	8003688 <osThreadNew+0x68>
 8003698:	6924      	ldr	r4, [r4, #16]
 800369a:	2c00      	cmp	r4, #0
 800369c:	d1f4      	bne.n	8003688 <osThreadNew+0x68>
 800369e:	ac05      	add	r4, sp, #20
 80036a0:	e9cd c400 	strd	ip, r4, [sp]
 80036a4:	b292      	uxth	r2, r2
 80036a6:	f000 fd2a 	bl	80040fe <xTaskCreate>
 80036aa:	2801      	cmp	r0, #1
 80036ac:	bf1c      	itt	ne
 80036ae:	2300      	movne	r3, #0
 80036b0:	9305      	strne	r3, [sp, #20]
 80036b2:	e7e9      	b.n	8003688 <osThreadNew+0x68>
 80036b4:	f04f 0c18 	mov.w	ip, #24
 80036b8:	2280      	movs	r2, #128	; 0x80
 80036ba:	f10d 0113 	add.w	r1, sp, #19
 80036be:	e7ee      	b.n	800369e <osThreadNew+0x7e>
 80036c0:	2000      	movs	r0, #0
 80036c2:	e7e2      	b.n	800368a <osThreadNew+0x6a>
 80036c4:	e9cd 4701 	strd	r4, r7, [sp, #4]
 80036c8:	9500      	str	r5, [sp, #0]
 80036ca:	f000 fce1 	bl	8004090 <xTaskCreateStatic>
 80036ce:	9005      	str	r0, [sp, #20]
 80036d0:	e7da      	b.n	8003688 <osThreadNew+0x68>
 80036d2:	bf00      	nop
 80036d4:	200002f4 	.word	0x200002f4

080036d8 <osDelay>:
 80036d8:	b508      	push	{r3, lr}
 80036da:	f3ef 8305 	mrs	r3, IPSR
 80036de:	b113      	cbz	r3, 80036e6 <osDelay+0xe>
 80036e0:	f06f 0005 	mvn.w	r0, #5
 80036e4:	bd08      	pop	{r3, pc}
 80036e6:	f3ef 8310 	mrs	r3, PRIMASK
 80036ea:	2b00      	cmp	r3, #0
 80036ec:	d1f8      	bne.n	80036e0 <osDelay+0x8>
 80036ee:	4b07      	ldr	r3, [pc, #28]	; (800370c <osDelay+0x34>)
 80036f0:	681b      	ldr	r3, [r3, #0]
 80036f2:	2b02      	cmp	r3, #2
 80036f4:	d103      	bne.n	80036fe <osDelay+0x26>
 80036f6:	f3ef 8311 	mrs	r3, BASEPRI
 80036fa:	2b00      	cmp	r3, #0
 80036fc:	d1f0      	bne.n	80036e0 <osDelay+0x8>
 80036fe:	2800      	cmp	r0, #0
 8003700:	d0f0      	beq.n	80036e4 <osDelay+0xc>
 8003702:	f000 fe7f 	bl	8004404 <vTaskDelay>
 8003706:	2000      	movs	r0, #0
 8003708:	e7ec      	b.n	80036e4 <osDelay+0xc>
 800370a:	bf00      	nop
 800370c:	200002f4 	.word	0x200002f4

08003710 <vApplicationGetIdleTaskMemory>:
 8003710:	4b03      	ldr	r3, [pc, #12]	; (8003720 <vApplicationGetIdleTaskMemory+0x10>)
 8003712:	6003      	str	r3, [r0, #0]
 8003714:	4b03      	ldr	r3, [pc, #12]	; (8003724 <vApplicationGetIdleTaskMemory+0x14>)
 8003716:	600b      	str	r3, [r1, #0]
 8003718:	2380      	movs	r3, #128	; 0x80
 800371a:	6013      	str	r3, [r2, #0]
 800371c:	4770      	bx	lr
 800371e:	bf00      	nop
 8003720:	20000298 	.word	0x20000298
 8003724:	20000098 	.word	0x20000098

08003728 <vApplicationGetTimerTaskMemory>:
 8003728:	4b03      	ldr	r3, [pc, #12]	; (8003738 <vApplicationGetTimerTaskMemory+0x10>)
 800372a:	6003      	str	r3, [r0, #0]
 800372c:	4b03      	ldr	r3, [pc, #12]	; (800373c <vApplicationGetTimerTaskMemory+0x14>)
 800372e:	600b      	str	r3, [r1, #0]
 8003730:	f44f 7380 	mov.w	r3, #256	; 0x100
 8003734:	6013      	str	r3, [r2, #0]
 8003736:	4770      	bx	lr
 8003738:	200006f8 	.word	0x200006f8
 800373c:	200002f8 	.word	0x200002f8

08003740 <vListInitialise>:
 8003740:	f04f 32ff 	mov.w	r2, #4294967295
 8003744:	f100 0308 	add.w	r3, r0, #8
 8003748:	e9c0 2302 	strd	r2, r3, [r0, #8]
 800374c:	6043      	str	r3, [r0, #4]
 800374e:	6103      	str	r3, [r0, #16]
 8003750:	2300      	movs	r3, #0
 8003752:	6003      	str	r3, [r0, #0]
 8003754:	4770      	bx	lr

08003756 <vListInitialiseItem>:
 8003756:	2300      	movs	r3, #0
 8003758:	6103      	str	r3, [r0, #16]
 800375a:	4770      	bx	lr

0800375c <vListInsertEnd>:
 800375c:	6843      	ldr	r3, [r0, #4]
 800375e:	689a      	ldr	r2, [r3, #8]
 8003760:	604b      	str	r3, [r1, #4]
 8003762:	608a      	str	r2, [r1, #8]
 8003764:	689a      	ldr	r2, [r3, #8]
 8003766:	6051      	str	r1, [r2, #4]
 8003768:	6099      	str	r1, [r3, #8]
 800376a:	6803      	ldr	r3, [r0, #0]
 800376c:	6108      	str	r0, [r1, #16]
 800376e:	3301      	adds	r3, #1
 8003770:	6003      	str	r3, [r0, #0]
 8003772:	4770      	bx	lr

08003774 <vListInsert>:
 8003774:	b530      	push	{r4, r5, lr}
 8003776:	680c      	ldr	r4, [r1, #0]
 8003778:	1c63      	adds	r3, r4, #1
 800377a:	d10a      	bne.n	8003792 <vListInsert+0x1e>
 800377c:	6903      	ldr	r3, [r0, #16]
 800377e:	685a      	ldr	r2, [r3, #4]
 8003780:	604a      	str	r2, [r1, #4]
 8003782:	6091      	str	r1, [r2, #8]
 8003784:	608b      	str	r3, [r1, #8]
 8003786:	6059      	str	r1, [r3, #4]
 8003788:	6803      	ldr	r3, [r0, #0]
 800378a:	6108      	str	r0, [r1, #16]
 800378c:	3301      	adds	r3, #1
 800378e:	6003      	str	r3, [r0, #0]
 8003790:	bd30      	pop	{r4, r5, pc}
 8003792:	f100 0208 	add.w	r2, r0, #8
 8003796:	4613      	mov	r3, r2
 8003798:	6852      	ldr	r2, [r2, #4]
 800379a:	6815      	ldr	r5, [r2, #0]
 800379c:	42a5      	cmp	r5, r4
 800379e:	d9fa      	bls.n	8003796 <vListInsert+0x22>
 80037a0:	e7ed      	b.n	800377e <vListInsert+0xa>

080037a2 <uxListRemove>:
 80037a2:	6903      	ldr	r3, [r0, #16]
 80037a4:	e9d0 1201 	ldrd	r1, r2, [r0, #4]
 80037a8:	608a      	str	r2, [r1, #8]
 80037aa:	6051      	str	r1, [r2, #4]
 80037ac:	6859      	ldr	r1, [r3, #4]
 80037ae:	4281      	cmp	r1, r0
 80037b0:	bf08      	it	eq
 80037b2:	605a      	streq	r2, [r3, #4]
 80037b4:	2200      	movs	r2, #0
 80037b6:	6102      	str	r2, [r0, #16]
 80037b8:	681a      	ldr	r2, [r3, #0]
 80037ba:	3a01      	subs	r2, #1
 80037bc:	601a      	str	r2, [r3, #0]
 80037be:	6818      	ldr	r0, [r3, #0]
 80037c0:	4770      	bx	lr

080037c2 <prvIsQueueEmpty>:
 80037c2:	b510      	push	{r4, lr}
 80037c4:	4604      	mov	r4, r0
 80037c6:	f001 f9d5 	bl	8004b74 <vPortEnterCritical>
 80037ca:	6ba4      	ldr	r4, [r4, #56]	; 0x38
 80037cc:	f001 f9f4 	bl	8004bb8 <vPortExitCritical>
 80037d0:	fab4 f084 	clz	r0, r4
 80037d4:	0940      	lsrs	r0, r0, #5
 80037d6:	bd10      	pop	{r4, pc}

080037d8 <prvCopyDataToQueue>:
 80037d8:	b5f8      	push	{r3, r4, r5, r6, r7, lr}
 80037da:	4615      	mov	r5, r2
 80037dc:	6c02      	ldr	r2, [r0, #64]	; 0x40
 80037de:	4604      	mov	r4, r0
 80037e0:	6b86      	ldr	r6, [r0, #56]	; 0x38
 80037e2:	b952      	cbnz	r2, 80037fa <prvCopyDataToQueue+0x22>
 80037e4:	6807      	ldr	r7, [r0, #0]
 80037e6:	bb47      	cbnz	r7, 800383a <prvCopyDataToQueue+0x62>
 80037e8:	6840      	ldr	r0, [r0, #4]
 80037ea:	f000 ff43 	bl	8004674 <xTaskPriorityDisinherit>
 80037ee:	4605      	mov	r5, r0
 80037f0:	6067      	str	r7, [r4, #4]
 80037f2:	3601      	adds	r6, #1
 80037f4:	4628      	mov	r0, r5
 80037f6:	63a6      	str	r6, [r4, #56]	; 0x38
 80037f8:	bdf8      	pop	{r3, r4, r5, r6, r7, pc}
 80037fa:	b965      	cbnz	r5, 8003816 <prvCopyDataToQueue+0x3e>
 80037fc:	6880      	ldr	r0, [r0, #8]
 80037fe:	f001 fbdb 	bl	8004fb8 <memcpy>
 8003802:	68a3      	ldr	r3, [r4, #8]
 8003804:	6c22      	ldr	r2, [r4, #64]	; 0x40
 8003806:	4413      	add	r3, r2
 8003808:	6862      	ldr	r2, [r4, #4]
 800380a:	60a3      	str	r3, [r4, #8]
 800380c:	4293      	cmp	r3, r2
 800380e:	d3f0      	bcc.n	80037f2 <prvCopyDataToQueue+0x1a>
 8003810:	6823      	ldr	r3, [r4, #0]
 8003812:	60a3      	str	r3, [r4, #8]
 8003814:	e7ed      	b.n	80037f2 <prvCopyDataToQueue+0x1a>
 8003816:	68c0      	ldr	r0, [r0, #12]
 8003818:	f001 fbce 	bl	8004fb8 <memcpy>
 800381c:	6c22      	ldr	r2, [r4, #64]	; 0x40
 800381e:	68e3      	ldr	r3, [r4, #12]
 8003820:	4251      	negs	r1, r2
 8003822:	1a9b      	subs	r3, r3, r2
 8003824:	6822      	ldr	r2, [r4, #0]
 8003826:	60e3      	str	r3, [r4, #12]
 8003828:	4293      	cmp	r3, r2
 800382a:	bf3e      	ittt	cc
 800382c:	6863      	ldrcc	r3, [r4, #4]
 800382e:	185b      	addcc	r3, r3, r1
 8003830:	60e3      	strcc	r3, [r4, #12]
 8003832:	2d02      	cmp	r5, #2
 8003834:	d101      	bne.n	800383a <prvCopyDataToQueue+0x62>
 8003836:	b116      	cbz	r6, 800383e <prvCopyDataToQueue+0x66>
 8003838:	3e01      	subs	r6, #1
 800383a:	2500      	movs	r5, #0
 800383c:	e7d9      	b.n	80037f2 <prvCopyDataToQueue+0x1a>
 800383e:	4635      	mov	r5, r6
 8003840:	e7d7      	b.n	80037f2 <prvCopyDataToQueue+0x1a>

08003842 <prvCopyDataFromQueue>:
 8003842:	4603      	mov	r3, r0
 8003844:	6c1a      	ldr	r2, [r3, #64]	; 0x40
 8003846:	4608      	mov	r0, r1
 8003848:	b410      	push	{r4}
 800384a:	b162      	cbz	r2, 8003866 <prvCopyDataFromQueue+0x24>
 800384c:	68dc      	ldr	r4, [r3, #12]
 800384e:	6859      	ldr	r1, [r3, #4]
 8003850:	4414      	add	r4, r2
 8003852:	428c      	cmp	r4, r1
 8003854:	bf28      	it	cs
 8003856:	6819      	ldrcs	r1, [r3, #0]
 8003858:	60dc      	str	r4, [r3, #12]
 800385a:	bf28      	it	cs
 800385c:	60d9      	strcs	r1, [r3, #12]
 800385e:	68d9      	ldr	r1, [r3, #12]
 8003860:	bc10      	pop	{r4}
 8003862:	f001 bba9 	b.w	8004fb8 <memcpy>
 8003866:	bc10      	pop	{r4}
 8003868:	4770      	bx	lr

0800386a <prvUnlockQueue>:
 800386a:	b570      	push	{r4, r5, r6, lr}
 800386c:	4604      	mov	r4, r0
 800386e:	f001 f981 	bl	8004b74 <vPortEnterCritical>
 8003872:	f894 5045 	ldrb.w	r5, [r4, #69]	; 0x45
 8003876:	f104 0624 	add.w	r6, r4, #36	; 0x24
 800387a:	b26d      	sxtb	r5, r5
 800387c:	2d00      	cmp	r5, #0
 800387e:	dc14      	bgt.n	80038aa <prvUnlockQueue+0x40>
 8003880:	23ff      	movs	r3, #255	; 0xff
 8003882:	f884 3045 	strb.w	r3, [r4, #69]	; 0x45
 8003886:	f001 f997 	bl	8004bb8 <vPortExitCritical>
 800388a:	f001 f973 	bl	8004b74 <vPortEnterCritical>
 800388e:	f894 5044 	ldrb.w	r5, [r4, #68]	; 0x44
 8003892:	f104 0610 	add.w	r6, r4, #16
 8003896:	b26d      	sxtb	r5, r5
 8003898:	2d00      	cmp	r5, #0
 800389a:	dc12      	bgt.n	80038c2 <prvUnlockQueue+0x58>
 800389c:	23ff      	movs	r3, #255	; 0xff
 800389e:	f884 3044 	strb.w	r3, [r4, #68]	; 0x44
 80038a2:	e8bd 4070 	ldmia.w	sp!, {r4, r5, r6, lr}
 80038a6:	f001 b987 	b.w	8004bb8 <vPortExitCritical>
 80038aa:	6a63      	ldr	r3, [r4, #36]	; 0x24
 80038ac:	2b00      	cmp	r3, #0
 80038ae:	d0e7      	beq.n	8003880 <prvUnlockQueue+0x16>
 80038b0:	4630      	mov	r0, r6
 80038b2:	f000 fe41 	bl	8004538 <xTaskRemoveFromEventList>
 80038b6:	b108      	cbz	r0, 80038bc <prvUnlockQueue+0x52>
 80038b8:	f000 fec6 	bl	8004648 <vTaskMissedYield>
 80038bc:	3d01      	subs	r5, #1
 80038be:	b26d      	sxtb	r5, r5
 80038c0:	e7dc      	b.n	800387c <prvUnlockQueue+0x12>
 80038c2:	6923      	ldr	r3, [r4, #16]
 80038c4:	2b00      	cmp	r3, #0
 80038c6:	d0e9      	beq.n	800389c <prvUnlockQueue+0x32>
 80038c8:	4630      	mov	r0, r6
 80038ca:	f000 fe35 	bl	8004538 <xTaskRemoveFromEventList>
 80038ce:	b108      	cbz	r0, 80038d4 <prvUnlockQueue+0x6a>
 80038d0:	f000 feba 	bl	8004648 <vTaskMissedYield>
 80038d4:	3d01      	subs	r5, #1
 80038d6:	b26d      	sxtb	r5, r5
 80038d8:	e7de      	b.n	8003898 <prvUnlockQueue+0x2e>
	...

080038dc <xQueueGenericReset>:
 80038dc:	b538      	push	{r3, r4, r5, lr}
 80038de:	460d      	mov	r5, r1
 80038e0:	4604      	mov	r4, r0
 80038e2:	b940      	cbnz	r0, 80038f6 <xQueueGenericReset+0x1a>
 80038e4:	f04f 0350 	mov.w	r3, #80	; 0x50
 80038e8:	f383 8811 	msr	BASEPRI, r3
 80038ec:	f3bf 8f6f 	isb	sy
 80038f0:	f3bf 8f4f 	dsb	sy
 80038f4:	e7fe      	b.n	80038f4 <xQueueGenericReset+0x18>
 80038f6:	f001 f93d 	bl	8004b74 <vPortEnterCritical>
 80038fa:	e9d4 310f 	ldrd	r3, r1, [r4, #60]	; 0x3c
 80038fe:	434b      	muls	r3, r1
 8003900:	6822      	ldr	r2, [r4, #0]
 8003902:	18d0      	adds	r0, r2, r3
 8003904:	1a5b      	subs	r3, r3, r1
 8003906:	4413      	add	r3, r2
 8003908:	6060      	str	r0, [r4, #4]
 800390a:	60e3      	str	r3, [r4, #12]
 800390c:	2000      	movs	r0, #0
 800390e:	23ff      	movs	r3, #255	; 0xff
 8003910:	63a0      	str	r0, [r4, #56]	; 0x38
 8003912:	60a2      	str	r2, [r4, #8]
 8003914:	f884 3044 	strb.w	r3, [r4, #68]	; 0x44
 8003918:	f884 3045 	strb.w	r3, [r4, #69]	; 0x45
 800391c:	b995      	cbnz	r5, 8003944 <xQueueGenericReset+0x68>
 800391e:	6923      	ldr	r3, [r4, #16]
 8003920:	b163      	cbz	r3, 800393c <xQueueGenericReset+0x60>
 8003922:	f104 0010 	add.w	r0, r4, #16
 8003926:	f000 fe07 	bl	8004538 <xTaskRemoveFromEventList>
 800392a:	b138      	cbz	r0, 800393c <xQueueGenericReset+0x60>
 800392c:	f04f 5280 	mov.w	r2, #268435456	; 0x10000000
 8003930:	4b09      	ldr	r3, [pc, #36]	; (8003958 <xQueueGenericReset+0x7c>)
 8003932:	601a      	str	r2, [r3, #0]
 8003934:	f3bf 8f4f 	dsb	sy
 8003938:	f3bf 8f6f 	isb	sy
 800393c:	f001 f93c 	bl	8004bb8 <vPortExitCritical>
 8003940:	2001      	movs	r0, #1
 8003942:	bd38      	pop	{r3, r4, r5, pc}
 8003944:	f104 0010 	add.w	r0, r4, #16
 8003948:	f7ff fefa 	bl	8003740 <vListInitialise>
 800394c:	f104 0024 	add.w	r0, r4, #36	; 0x24
 8003950:	f7ff fef6 	bl	8003740 <vListInitialise>
 8003954:	e7f2      	b.n	800393c <xQueueGenericReset+0x60>
 8003956:	bf00      	nop
 8003958:	e000ed04 	.word	0xe000ed04

0800395c <xQueueGenericCreateStatic>:
 800395c:	b537      	push	{r0, r1, r2, r4, r5, lr}
 800395e:	460d      	mov	r5, r1
 8003960:	461c      	mov	r4, r3
 8003962:	b940      	cbnz	r0, 8003976 <xQueueGenericCreateStatic+0x1a>
 8003964:	f04f 0350 	mov.w	r3, #80	; 0x50
 8003968:	f383 8811 	msr	BASEPRI, r3
 800396c:	f3bf 8f6f 	isb	sy
 8003970:	f3bf 8f4f 	dsb	sy
 8003974:	e7fe      	b.n	8003974 <xQueueGenericCreateStatic+0x18>
 8003976:	b943      	cbnz	r3, 800398a <xQueueGenericCreateStatic+0x2e>
 8003978:	f04f 0350 	mov.w	r3, #80	; 0x50
 800397c:	f383 8811 	msr	BASEPRI, r3
 8003980:	f3bf 8f6f 	isb	sy
 8003984:	f3bf 8f4f 	dsb	sy
 8003988:	e7fe      	b.n	8003988 <xQueueGenericCreateStatic+0x2c>
 800398a:	b14a      	cbz	r2, 80039a0 <xQueueGenericCreateStatic+0x44>
 800398c:	b991      	cbnz	r1, 80039b4 <xQueueGenericCreateStatic+0x58>
 800398e:	f04f 0350 	mov.w	r3, #80	; 0x50
 8003992:	f383 8811 	msr	BASEPRI, r3
 8003996:	f3bf 8f6f 	isb	sy
 800399a:	f3bf 8f4f 	dsb	sy
 800399e:	e7fe      	b.n	800399e <xQueueGenericCreateStatic+0x42>
 80039a0:	b141      	cbz	r1, 80039b4 <xQueueGenericCreateStatic+0x58>
 80039a2:	f04f 0350 	mov.w	r3, #80	; 0x50
 80039a6:	f383 8811 	msr	BASEPRI, r3
 80039aa:	f3bf 8f6f 	isb	sy
 80039ae:	f3bf 8f4f 	dsb	sy
 80039b2:	e7fe      	b.n	80039b2 <xQueueGenericCreateStatic+0x56>
 80039b4:	2350      	movs	r3, #80	; 0x50
 80039b6:	9301      	str	r3, [sp, #4]
 80039b8:	9b01      	ldr	r3, [sp, #4]
 80039ba:	2b50      	cmp	r3, #80	; 0x50
 80039bc:	d008      	beq.n	80039d0 <xQueueGenericCreateStatic+0x74>
 80039be:	f04f 0350 	mov.w	r3, #80	; 0x50
 80039c2:	f383 8811 	msr	BASEPRI, r3
 80039c6:	f3bf 8f6f 	isb	sy
 80039ca:	f3bf 8f4f 	dsb	sy
 80039ce:	e7fe      	b.n	80039ce <xQueueGenericCreateStatic+0x72>
 80039d0:	2101      	movs	r1, #1
 80039d2:	2d00      	cmp	r5, #0
 80039d4:	bf08      	it	eq
 80039d6:	4622      	moveq	r2, r4
 80039d8:	e9c4 050f 	strd	r0, r5, [r4, #60]	; 0x3c
 80039dc:	f884 1046 	strb.w	r1, [r4, #70]	; 0x46
 80039e0:	4620      	mov	r0, r4
 80039e2:	6022      	str	r2, [r4, #0]
 80039e4:	f7ff ff7a 	bl	80038dc <xQueueGenericReset>
 80039e8:	4620      	mov	r0, r4
 80039ea:	f89d 3018 	ldrb.w	r3, [sp, #24]
 80039ee:	f884 304c 	strb.w	r3, [r4, #76]	; 0x4c
 80039f2:	b003      	add	sp, #12
 80039f4:	bd30      	pop	{r4, r5, pc}
	...

080039f8 <xQueueGenericSend>:
 80039f8:	e92d 47ff 	stmdb	sp!, {r0, r1, r2, r3, r4, r5, r6, r7, r8, r9, sl, lr}
 80039fc:	4688      	mov	r8, r1
 80039fe:	461f      	mov	r7, r3
 8003a00:	4604      	mov	r4, r0
 8003a02:	9201      	str	r2, [sp, #4]
 8003a04:	b940      	cbnz	r0, 8003a18 <xQueueGenericSend+0x20>
 8003a06:	f04f 0350 	mov.w	r3, #80	; 0x50
 8003a0a:	f383 8811 	msr	BASEPRI, r3
 8003a0e:	f3bf 8f6f 	isb	sy
 8003a12:	f3bf 8f4f 	dsb	sy
 8003a16:	e7fe      	b.n	8003a16 <xQueueGenericSend+0x1e>
 8003a18:	b951      	cbnz	r1, 8003a30 <xQueueGenericSend+0x38>
 8003a1a:	6c03      	ldr	r3, [r0, #64]	; 0x40
 8003a1c:	b143      	cbz	r3, 8003a30 <xQueueGenericSend+0x38>
 8003a1e:	f04f 0350 	mov.w	r3, #80	; 0x50
 8003a22:	f383 8811 	msr	BASEPRI, r3
 8003a26:	f3bf 8f6f 	isb	sy
 8003a2a:	f3bf 8f4f 	dsb	sy
 8003a2e:	e7fe      	b.n	8003a2e <xQueueGenericSend+0x36>
 8003a30:	2f02      	cmp	r7, #2
 8003a32:	d10b      	bne.n	8003a4c <xQueueGenericSend+0x54>
 8003a34:	6be3      	ldr	r3, [r4, #60]	; 0x3c
 8003a36:	2b01      	cmp	r3, #1
 8003a38:	d008      	beq.n	8003a4c <xQueueGenericSend+0x54>
 8003a3a:	f04f 0350 	mov.w	r3, #80	; 0x50
 8003a3e:	f383 8811 	msr	BASEPRI, r3
 8003a42:	f3bf 8f6f 	isb	sy
 8003a46:	f3bf 8f4f 	dsb	sy
 8003a4a:	e7fe      	b.n	8003a4a <xQueueGenericSend+0x52>
 8003a4c:	f000 fe02 	bl	8004654 <xTaskGetSchedulerState>
 8003a50:	4606      	mov	r6, r0
 8003a52:	b950      	cbnz	r0, 8003a6a <xQueueGenericSend+0x72>
 8003a54:	9b01      	ldr	r3, [sp, #4]
 8003a56:	b14b      	cbz	r3, 8003a6c <xQueueGenericSend+0x74>
 8003a58:	f04f 0350 	mov.w	r3, #80	; 0x50
 8003a5c:	f383 8811 	msr	BASEPRI, r3
 8003a60:	f3bf 8f6f 	isb	sy
 8003a64:	f3bf 8f4f 	dsb	sy
 8003a68:	e7fe      	b.n	8003a68 <xQueueGenericSend+0x70>
 8003a6a:	2600      	movs	r6, #0
 8003a6c:	f04f 0900 	mov.w	r9, #0
 8003a70:	f8df a0e4 	ldr.w	sl, [pc, #228]	; 8003b58 <xQueueGenericSend+0x160>
 8003a74:	e037      	b.n	8003ae6 <xQueueGenericSend+0xee>
 8003a76:	9d01      	ldr	r5, [sp, #4]
 8003a78:	b91d      	cbnz	r5, 8003a82 <xQueueGenericSend+0x8a>
 8003a7a:	f001 f89d 	bl	8004bb8 <vPortExitCritical>
 8003a7e:	2000      	movs	r0, #0
 8003a80:	e050      	b.n	8003b24 <xQueueGenericSend+0x12c>
 8003a82:	b916      	cbnz	r6, 8003a8a <xQueueGenericSend+0x92>
 8003a84:	a802      	add	r0, sp, #8
 8003a86:	f000 fd97 	bl	80045b8 <vTaskInternalSetTimeOutState>
 8003a8a:	f001 f895 	bl	8004bb8 <vPortExitCritical>
 8003a8e:	f000 fba7 	bl	80041e0 <vTaskSuspendAll>
 8003a92:	f001 f86f 	bl	8004b74 <vPortEnterCritical>
 8003a96:	f894 3044 	ldrb.w	r3, [r4, #68]	; 0x44
 8003a9a:	2bff      	cmp	r3, #255	; 0xff
 8003a9c:	bf08      	it	eq
 8003a9e:	f884 9044 	strbeq.w	r9, [r4, #68]	; 0x44
 8003aa2:	f894 3045 	ldrb.w	r3, [r4, #69]	; 0x45
 8003aa6:	2bff      	cmp	r3, #255	; 0xff
 8003aa8:	bf08      	it	eq
 8003aaa:	f884 9045 	strbeq.w	r9, [r4, #69]	; 0x45
 8003aae:	f001 f883 	bl	8004bb8 <vPortExitCritical>
 8003ab2:	a901      	add	r1, sp, #4
 8003ab4:	a802      	add	r0, sp, #8
 8003ab6:	f000 fd8b 	bl	80045d0 <xTaskCheckForTimeOut>
 8003aba:	2800      	cmp	r0, #0
 8003abc:	d146      	bne.n	8003b4c <xQueueGenericSend+0x154>
 8003abe:	f001 f859 	bl	8004b74 <vPortEnterCritical>
 8003ac2:	6ba2      	ldr	r2, [r4, #56]	; 0x38
 8003ac4:	6be3      	ldr	r3, [r4, #60]	; 0x3c
 8003ac6:	429a      	cmp	r2, r3
 8003ac8:	d12f      	bne.n	8003b2a <xQueueGenericSend+0x132>
 8003aca:	f001 f875 	bl	8004bb8 <vPortExitCritical>
 8003ace:	9901      	ldr	r1, [sp, #4]
 8003ad0:	f104 0010 	add.w	r0, r4, #16
 8003ad4:	f000 fcf6 	bl	80044c4 <vTaskPlaceOnEventList>
 8003ad8:	4620      	mov	r0, r4
 8003ada:	f7ff fec6 	bl	800386a <prvUnlockQueue>
 8003ade:	f000 fc1d 	bl	800431c <xTaskResumeAll>
 8003ae2:	b350      	cbz	r0, 8003b3a <xQueueGenericSend+0x142>
 8003ae4:	2601      	movs	r6, #1
 8003ae6:	f001 f845 	bl	8004b74 <vPortEnterCritical>
 8003aea:	6ba2      	ldr	r2, [r4, #56]	; 0x38
 8003aec:	6be3      	ldr	r3, [r4, #60]	; 0x3c
 8003aee:	429a      	cmp	r2, r3
 8003af0:	d301      	bcc.n	8003af6 <xQueueGenericSend+0xfe>
 8003af2:	2f02      	cmp	r7, #2
 8003af4:	d1bf      	bne.n	8003a76 <xQueueGenericSend+0x7e>
 8003af6:	463a      	mov	r2, r7
 8003af8:	4641      	mov	r1, r8
 8003afa:	4620      	mov	r0, r4
 8003afc:	f7ff fe6c 	bl	80037d8 <prvCopyDataToQueue>
 8003b00:	6a63      	ldr	r3, [r4, #36]	; 0x24
 8003b02:	b11b      	cbz	r3, 8003b0c <xQueueGenericSend+0x114>
 8003b04:	f104 0024 	add.w	r0, r4, #36	; 0x24
 8003b08:	f000 fd16 	bl	8004538 <xTaskRemoveFromEventList>
 8003b0c:	b138      	cbz	r0, 8003b1e <xQueueGenericSend+0x126>
 8003b0e:	f04f 5280 	mov.w	r2, #268435456	; 0x10000000
 8003b12:	4b11      	ldr	r3, [pc, #68]	; (8003b58 <xQueueGenericSend+0x160>)
 8003b14:	601a      	str	r2, [r3, #0]
 8003b16:	f3bf 8f4f 	dsb	sy
 8003b1a:	f3bf 8f6f 	isb	sy
 8003b1e:	f001 f84b 	bl	8004bb8 <vPortExitCritical>
 8003b22:	2001      	movs	r0, #1
 8003b24:	b004      	add	sp, #16
 8003b26:	e8bd 87f0 	ldmia.w	sp!, {r4, r5, r6, r7, r8, r9, sl, pc}
 8003b2a:	f001 f845 	bl	8004bb8 <vPortExitCritical>
 8003b2e:	4620      	mov	r0, r4
 8003b30:	f7ff fe9b 	bl	800386a <prvUnlockQueue>
 8003b34:	f000 fbf2 	bl	800431c <xTaskResumeAll>
 8003b38:	e7d4      	b.n	8003ae4 <xQueueGenericSend+0xec>
 8003b3a:	f04f 5380 	mov.w	r3, #268435456	; 0x10000000
 8003b3e:	f8ca 3000 	str.w	r3, [sl]
 8003b42:	f3bf 8f4f 	dsb	sy
 8003b46:	f3bf 8f6f 	isb	sy
 8003b4a:	e7cb      	b.n	8003ae4 <xQueueGenericSend+0xec>
 8003b4c:	4620      	mov	r0, r4
 8003b4e:	f7ff fe8c 	bl	800386a <prvUnlockQueue>
 8003b52:	f000 fbe3 	bl	800431c <xTaskResumeAll>
 8003b56:	e792      	b.n	8003a7e <xQueueGenericSend+0x86>
 8003b58:	e000ed04 	.word	0xe000ed04

08003b5c <xQueueGenericSendFromISR>:
 8003b5c:	e92d 43f8 	stmdb	sp!, {r3, r4, r5, r6, r7, r8, r9, lr}
 8003b60:	4689      	mov	r9, r1
 8003b62:	4690      	mov	r8, r2
 8003b64:	461f      	mov	r7, r3
 8003b66:	4604      	mov	r4, r0
 8003b68:	b940      	cbnz	r0, 8003b7c <xQueueGenericSendFromISR+0x20>
 8003b6a:	f04f 0350 	mov.w	r3, #80	; 0x50
 8003b6e:	f383 8811 	msr	BASEPRI, r3
 8003b72:	f3bf 8f6f 	isb	sy
 8003b76:	f3bf 8f4f 	dsb	sy
 8003b7a:	e7fe      	b.n	8003b7a <xQueueGenericSendFromISR+0x1e>
 8003b7c:	b951      	cbnz	r1, 8003b94 <xQueueGenericSendFromISR+0x38>
 8003b7e:	6c03      	ldr	r3, [r0, #64]	; 0x40
 8003b80:	b143      	cbz	r3, 8003b94 <xQueueGenericSendFromISR+0x38>
 8003b82:	f04f 0350 	mov.w	r3, #80	; 0x50
 8003b86:	f383 8811 	msr	BASEPRI, r3
 8003b8a:	f3bf 8f6f 	isb	sy
 8003b8e:	f3bf 8f4f 	dsb	sy
 8003b92:	e7fe      	b.n	8003b92 <xQueueGenericSendFromISR+0x36>
 8003b94:	2f02      	cmp	r7, #2
 8003b96:	d10b      	bne.n	8003bb0 <xQueueGenericSendFromISR+0x54>
 8003b98:	6be3      	ldr	r3, [r4, #60]	; 0x3c
 8003b9a:	2b01      	cmp	r3, #1
 8003b9c:	d008      	beq.n	8003bb0 <xQueueGenericSendFromISR+0x54>
 8003b9e:	f04f 0350 	mov.w	r3, #80	; 0x50
 8003ba2:	f383 8811 	msr	BASEPRI, r3
 8003ba6:	f3bf 8f6f 	isb	sy
 8003baa:	f3bf 8f4f 	dsb	sy
 8003bae:	e7fe      	b.n	8003bae <xQueueGenericSendFromISR+0x52>
 8003bb0:	f001 f8c0 	bl	8004d34 <vPortValidateInterruptPriority>
 8003bb4:	f3ef 8611 	mrs	r6, BASEPRI
 8003bb8:	f04f 0350 	mov.w	r3, #80	; 0x50
 8003bbc:	f383 8811 	msr	BASEPRI, r3
 8003bc0:	f3bf 8f6f 	isb	sy
 8003bc4:	f3bf 8f4f 	dsb	sy
 8003bc8:	6ba2      	ldr	r2, [r4, #56]	; 0x38
 8003bca:	6be3      	ldr	r3, [r4, #60]	; 0x3c
 8003bcc:	429a      	cmp	r2, r3
 8003bce:	d301      	bcc.n	8003bd4 <xQueueGenericSendFromISR+0x78>
 8003bd0:	2f02      	cmp	r7, #2
 8003bd2:	d122      	bne.n	8003c1a <xQueueGenericSendFromISR+0xbe>
 8003bd4:	f894 5045 	ldrb.w	r5, [r4, #69]	; 0x45
 8003bd8:	463a      	mov	r2, r7
 8003bda:	4649      	mov	r1, r9
 8003bdc:	4620      	mov	r0, r4
 8003bde:	b26d      	sxtb	r5, r5
 8003be0:	f7ff fdfa 	bl	80037d8 <prvCopyDataToQueue>
 8003be4:	1c6b      	adds	r3, r5, #1
 8003be6:	d113      	bne.n	8003c10 <xQueueGenericSendFromISR+0xb4>
 8003be8:	6a63      	ldr	r3, [r4, #36]	; 0x24
 8003bea:	b90b      	cbnz	r3, 8003bf0 <xQueueGenericSendFromISR+0x94>
 8003bec:	2001      	movs	r0, #1
 8003bee:	e00b      	b.n	8003c08 <xQueueGenericSendFromISR+0xac>
 8003bf0:	f104 0024 	add.w	r0, r4, #36	; 0x24
 8003bf4:	f000 fca0 	bl	8004538 <xTaskRemoveFromEventList>
 8003bf8:	2800      	cmp	r0, #0
 8003bfa:	d0f7      	beq.n	8003bec <xQueueGenericSendFromISR+0x90>
 8003bfc:	f1b8 0f00 	cmp.w	r8, #0
 8003c00:	d0f4      	beq.n	8003bec <xQueueGenericSendFromISR+0x90>
 8003c02:	2001      	movs	r0, #1
 8003c04:	f8c8 0000 	str.w	r0, [r8]
 8003c08:	f386 8811 	msr	BASEPRI, r6
 8003c0c:	e8bd 83f8 	ldmia.w	sp!, {r3, r4, r5, r6, r7, r8, r9, pc}
 8003c10:	3501      	adds	r5, #1
 8003c12:	b26d      	sxtb	r5, r5
 8003c14:	f884 5045 	strb.w	r5, [r4, #69]	; 0x45
 8003c18:	e7e8      	b.n	8003bec <xQueueGenericSendFromISR+0x90>
 8003c1a:	2000      	movs	r0, #0
 8003c1c:	e7f4      	b.n	8003c08 <xQueueGenericSendFromISR+0xac>
	...

08003c20 <xQueueReceive>:
 8003c20:	e92d 43f0 	stmdb	sp!, {r4, r5, r6, r7, r8, r9, lr}
 8003c24:	b085      	sub	sp, #20
 8003c26:	460f      	mov	r7, r1
 8003c28:	4604      	mov	r4, r0
 8003c2a:	9201      	str	r2, [sp, #4]
 8003c2c:	b940      	cbnz	r0, 8003c40 <xQueueReceive+0x20>
 8003c2e:	f04f 0350 	mov.w	r3, #80	; 0x50
 8003c32:	f383 8811 	msr	BASEPRI, r3
 8003c36:	f3bf 8f6f 	isb	sy
 8003c3a:	f3bf 8f4f 	dsb	sy
 8003c3e:	e7fe      	b.n	8003c3e <xQueueReceive+0x1e>
 8003c40:	b951      	cbnz	r1, 8003c58 <xQueueReceive+0x38>
 8003c42:	6c03      	ldr	r3, [r0, #64]	; 0x40
 8003c44:	b143      	cbz	r3, 8003c58 <xQueueReceive+0x38>
 8003c46:	f04f 0350 	mov.w	r3, #80	; 0x50
 8003c4a:	f383 8811 	msr	BASEPRI, r3
 8003c4e:	f3bf 8f6f 	isb	sy
 8003c52:	f3bf 8f4f 	dsb	sy
 8003c56:	e7fe      	b.n	8003c56 <xQueueReceive+0x36>
 8003c58:	f000 fcfc 	bl	8004654 <xTaskGetSchedulerState>
 8003c5c:	4606      	mov	r6, r0
 8003c5e:	b950      	cbnz	r0, 8003c76 <xQueueReceive+0x56>
 8003c60:	9b01      	ldr	r3, [sp, #4]
 8003c62:	b14b      	cbz	r3, 8003c78 <xQueueReceive+0x58>
 8003c64:	f04f 0350 	mov.w	r3, #80	; 0x50
 8003c68:	f383 8811 	msr	BASEPRI, r3
 8003c6c:	f3bf 8f6f 	isb	sy
 8003c70:	f3bf 8f4f 	dsb	sy
 8003c74:	e7fe      	b.n	8003c74 <xQueueReceive+0x54>
 8003c76:	2600      	movs	r6, #0
 8003c78:	f04f 0800 	mov.w	r8, #0
 8003c7c:	f8df 90dc 	ldr.w	r9, [pc, #220]	; 8003d5c <xQueueReceive+0x13c>
 8003c80:	e03b      	b.n	8003cfa <xQueueReceive+0xda>
 8003c82:	9d01      	ldr	r5, [sp, #4]
 8003c84:	b91d      	cbnz	r5, 8003c8e <xQueueReceive+0x6e>
 8003c86:	f000 ff97 	bl	8004bb8 <vPortExitCritical>
 8003c8a:	2000      	movs	r0, #0
 8003c8c:	e052      	b.n	8003d34 <xQueueReceive+0x114>
 8003c8e:	b916      	cbnz	r6, 8003c96 <xQueueReceive+0x76>
 8003c90:	a802      	add	r0, sp, #8
 8003c92:	f000 fc91 	bl	80045b8 <vTaskInternalSetTimeOutState>
 8003c96:	f000 ff8f 	bl	8004bb8 <vPortExitCritical>
 8003c9a:	f000 faa1 	bl	80041e0 <vTaskSuspendAll>
 8003c9e:	f000 ff69 	bl	8004b74 <vPortEnterCritical>
 8003ca2:	f894 3044 	ldrb.w	r3, [r4, #68]	; 0x44
 8003ca6:	2bff      	cmp	r3, #255	; 0xff
 8003ca8:	bf08      	it	eq
 8003caa:	f884 8044 	strbeq.w	r8, [r4, #68]	; 0x44
 8003cae:	f894 3045 	ldrb.w	r3, [r4, #69]	; 0x45
 8003cb2:	2bff      	cmp	r3, #255	; 0xff
 8003cb4:	bf08      	it	eq
 8003cb6:	f884 8045 	strbeq.w	r8, [r4, #69]	; 0x45
 8003cba:	f000 ff7d 	bl	8004bb8 <vPortExitCritical>
 8003cbe:	a901      	add	r1, sp, #4
 8003cc0:	a802      	add	r0, sp, #8
 8003cc2:	f000 fc85 	bl	80045d0 <xTaskCheckForTimeOut>
 8003cc6:	2800      	cmp	r0, #0
 8003cc8:	d13d      	bne.n	8003d46 <xQueueReceive+0x126>
 8003cca:	4620      	mov	r0, r4
 8003ccc:	f7ff fd79 	bl	80037c2 <prvIsQueueEmpty>
 8003cd0:	b398      	cbz	r0, 8003d3a <xQueueReceive+0x11a>
 8003cd2:	9901      	ldr	r1, [sp, #4]
 8003cd4:	f104 0024 	add.w	r0, r4, #36	; 0x24
 8003cd8:	f000 fbf4 	bl	80044c4 <vTaskPlaceOnEventList>
 8003cdc:	4620      	mov	r0, r4
 8003cde:	f7ff fdc4 	bl	800386a <prvUnlockQueue>
 8003ce2:	f000 fb1b 	bl	800431c <xTaskResumeAll>
 8003ce6:	b938      	cbnz	r0, 8003cf8 <xQueueReceive+0xd8>
 8003ce8:	f04f 5380 	mov.w	r3, #268435456	; 0x10000000
 8003cec:	f8c9 3000 	str.w	r3, [r9]
 8003cf0:	f3bf 8f4f 	dsb	sy
 8003cf4:	f3bf 8f6f 	isb	sy
 8003cf8:	2601      	movs	r6, #1
 8003cfa:	f000 ff3b 	bl	8004b74 <vPortEnterCritical>
 8003cfe:	6ba5      	ldr	r5, [r4, #56]	; 0x38
 8003d00:	2d00      	cmp	r5, #0
 8003d02:	d0be      	beq.n	8003c82 <xQueueReceive+0x62>
 8003d04:	4639      	mov	r1, r7
 8003d06:	4620      	mov	r0, r4
 8003d08:	3d01      	subs	r5, #1
 8003d0a:	f7ff fd9a 	bl	8003842 <prvCopyDataFromQueue>
 8003d0e:	63a5      	str	r5, [r4, #56]	; 0x38
 8003d10:	6923      	ldr	r3, [r4, #16]
 8003d12:	b163      	cbz	r3, 8003d2e <xQueueReceive+0x10e>
 8003d14:	f104 0010 	add.w	r0, r4, #16
 8003d18:	f000 fc0e 	bl	8004538 <xTaskRemoveFromEventList>
 8003d1c:	b138      	cbz	r0, 8003d2e <xQueueReceive+0x10e>
 8003d1e:	f04f 5280 	mov.w	r2, #268435456	; 0x10000000
 8003d22:	4b0e      	ldr	r3, [pc, #56]	; (8003d5c <xQueueReceive+0x13c>)
 8003d24:	601a      	str	r2, [r3, #0]
 8003d26:	f3bf 8f4f 	dsb	sy
 8003d2a:	f3bf 8f6f 	isb	sy
 8003d2e:	f000 ff43 	bl	8004bb8 <vPortExitCritical>
 8003d32:	2001      	movs	r0, #1
 8003d34:	b005      	add	sp, #20
 8003d36:	e8bd 83f0 	ldmia.w	sp!, {r4, r5, r6, r7, r8, r9, pc}
 8003d3a:	4620      	mov	r0, r4
 8003d3c:	f7ff fd95 	bl	800386a <prvUnlockQueue>
 8003d40:	f000 faec 	bl	800431c <xTaskResumeAll>
 8003d44:	e7d8      	b.n	8003cf8 <xQueueReceive+0xd8>
 8003d46:	4620      	mov	r0, r4
 8003d48:	f7ff fd8f 	bl	800386a <prvUnlockQueue>
 8003d4c:	f000 fae6 	bl	800431c <xTaskResumeAll>
 8003d50:	4620      	mov	r0, r4
 8003d52:	f7ff fd36 	bl	80037c2 <prvIsQueueEmpty>
 8003d56:	2800      	cmp	r0, #0
 8003d58:	d0ce      	beq.n	8003cf8 <xQueueReceive+0xd8>
 8003d5a:	e796      	b.n	8003c8a <xQueueReceive+0x6a>
 8003d5c:	e000ed04 	.word	0xe000ed04

08003d60 <vQueueAddToRegistry>:
 8003d60:	2300      	movs	r3, #0
 8003d62:	b530      	push	{r4, r5, lr}
 8003d64:	4a06      	ldr	r2, [pc, #24]	; (8003d80 <vQueueAddToRegistry+0x20>)
 8003d66:	f852 5033 	ldr.w	r5, [r2, r3, lsl #3]
 8003d6a:	eb02 04c3 	add.w	r4, r2, r3, lsl #3
 8003d6e:	b91d      	cbnz	r5, 8003d78 <vQueueAddToRegistry+0x18>
 8003d70:	f842 1033 	str.w	r1, [r2, r3, lsl #3]
 8003d74:	6060      	str	r0, [r4, #4]
 8003d76:	bd30      	pop	{r4, r5, pc}
 8003d78:	3301      	adds	r3, #1
 8003d7a:	2b08      	cmp	r3, #8
 8003d7c:	d1f3      	bne.n	8003d66 <vQueueAddToRegistry+0x6>
 8003d7e:	e7fa      	b.n	8003d76 <vQueueAddToRegistry+0x16>
 8003d80:	20001ff0 	.word	0x20001ff0

08003d84 <vQueueWaitForMessageRestricted>:
 8003d84:	b570      	push	{r4, r5, r6, lr}
 8003d86:	4604      	mov	r4, r0
 8003d88:	460d      	mov	r5, r1
 8003d8a:	4616      	mov	r6, r2
 8003d8c:	f000 fef2 	bl	8004b74 <vPortEnterCritical>
 8003d90:	f894 3044 	ldrb.w	r3, [r4, #68]	; 0x44
 8003d94:	2bff      	cmp	r3, #255	; 0xff
 8003d96:	bf04      	itt	eq
 8003d98:	2300      	moveq	r3, #0
 8003d9a:	f884 3044 	strbeq.w	r3, [r4, #68]	; 0x44
 8003d9e:	f894 3045 	ldrb.w	r3, [r4, #69]	; 0x45
 8003da2:	2bff      	cmp	r3, #255	; 0xff
 8003da4:	bf04      	itt	eq
 8003da6:	2300      	moveq	r3, #0
 8003da8:	f884 3045 	strbeq.w	r3, [r4, #69]	; 0x45
 8003dac:	f000 ff04 	bl	8004bb8 <vPortExitCritical>
 8003db0:	6ba3      	ldr	r3, [r4, #56]	; 0x38
 8003db2:	b92b      	cbnz	r3, 8003dc0 <vQueueWaitForMessageRestricted+0x3c>
 8003db4:	4632      	mov	r2, r6
 8003db6:	4629      	mov	r1, r5
 8003db8:	f104 0024 	add.w	r0, r4, #36	; 0x24
 8003dbc:	f000 fb9c 	bl	80044f8 <vTaskPlaceOnEventListRestricted>
 8003dc0:	4620      	mov	r0, r4
 8003dc2:	e8bd 4070 	ldmia.w	sp!, {r4, r5, r6, lr}
 8003dc6:	f7ff bd50 	b.w	800386a <prvUnlockQueue>
	...

08003dcc <prvAddNewTaskToReadyList>:
 8003dcc:	e92d 41f0 	stmdb	sp!, {r4, r5, r6, r7, r8, lr}
 8003dd0:	4604      	mov	r4, r0
 8003dd2:	f000 fecf 	bl	8004b74 <vPortEnterCritical>
 8003dd6:	4b2f      	ldr	r3, [pc, #188]	; (8003e94 <prvAddNewTaskToReadyList+0xc8>)
 8003dd8:	4d2f      	ldr	r5, [pc, #188]	; (8003e98 <prvAddNewTaskToReadyList+0xcc>)
 8003dda:	681a      	ldr	r2, [r3, #0]
 8003ddc:	4f2f      	ldr	r7, [pc, #188]	; (8003e9c <prvAddNewTaskToReadyList+0xd0>)
 8003dde:	3201      	adds	r2, #1
 8003de0:	601a      	str	r2, [r3, #0]
 8003de2:	682e      	ldr	r6, [r5, #0]
 8003de4:	2e00      	cmp	r6, #0
 8003de6:	d149      	bne.n	8003e7c <prvAddNewTaskToReadyList+0xb0>
 8003de8:	602c      	str	r4, [r5, #0]
 8003dea:	681b      	ldr	r3, [r3, #0]
 8003dec:	2b01      	cmp	r3, #1
 8003dee:	d11f      	bne.n	8003e30 <prvAddNewTaskToReadyList+0x64>
 8003df0:	46b8      	mov	r8, r7
 8003df2:	4640      	mov	r0, r8
 8003df4:	3601      	adds	r6, #1
 8003df6:	f7ff fca3 	bl	8003740 <vListInitialise>
 8003dfa:	2e38      	cmp	r6, #56	; 0x38
 8003dfc:	f108 0814 	add.w	r8, r8, #20
 8003e00:	d1f7      	bne.n	8003df2 <prvAddNewTaskToReadyList+0x26>
 8003e02:	f8df 80c4 	ldr.w	r8, [pc, #196]	; 8003ec8 <prvAddNewTaskToReadyList+0xfc>
 8003e06:	4e26      	ldr	r6, [pc, #152]	; (8003ea0 <prvAddNewTaskToReadyList+0xd4>)
 8003e08:	4640      	mov	r0, r8
 8003e0a:	f7ff fc99 	bl	8003740 <vListInitialise>
 8003e0e:	4630      	mov	r0, r6
 8003e10:	f7ff fc96 	bl	8003740 <vListInitialise>
 8003e14:	4823      	ldr	r0, [pc, #140]	; (8003ea4 <prvAddNewTaskToReadyList+0xd8>)
 8003e16:	f7ff fc93 	bl	8003740 <vListInitialise>
 8003e1a:	4823      	ldr	r0, [pc, #140]	; (8003ea8 <prvAddNewTaskToReadyList+0xdc>)
 8003e1c:	f7ff fc90 	bl	8003740 <vListInitialise>
 8003e20:	4822      	ldr	r0, [pc, #136]	; (8003eac <prvAddNewTaskToReadyList+0xe0>)
 8003e22:	f7ff fc8d 	bl	8003740 <vListInitialise>
 8003e26:	4b22      	ldr	r3, [pc, #136]	; (8003eb0 <prvAddNewTaskToReadyList+0xe4>)
 8003e28:	f8c3 8000 	str.w	r8, [r3]
 8003e2c:	4b21      	ldr	r3, [pc, #132]	; (8003eb4 <prvAddNewTaskToReadyList+0xe8>)
 8003e2e:	601e      	str	r6, [r3, #0]
 8003e30:	2014      	movs	r0, #20
 8003e32:	4a21      	ldr	r2, [pc, #132]	; (8003eb8 <prvAddNewTaskToReadyList+0xec>)
 8003e34:	6813      	ldr	r3, [r2, #0]
 8003e36:	3301      	adds	r3, #1
 8003e38:	6013      	str	r3, [r2, #0]
 8003e3a:	4a20      	ldr	r2, [pc, #128]	; (8003ebc <prvAddNewTaskToReadyList+0xf0>)
 8003e3c:	6463      	str	r3, [r4, #68]	; 0x44
 8003e3e:	6811      	ldr	r1, [r2, #0]
 8003e40:	6ae3      	ldr	r3, [r4, #44]	; 0x2c
 8003e42:	428b      	cmp	r3, r1
 8003e44:	fb00 7003 	mla	r0, r0, r3, r7
 8003e48:	f104 0104 	add.w	r1, r4, #4
 8003e4c:	bf88      	it	hi
 8003e4e:	6013      	strhi	r3, [r2, #0]
 8003e50:	f7ff fc84 	bl	800375c <vListInsertEnd>
 8003e54:	f000 feb0 	bl	8004bb8 <vPortExitCritical>
 8003e58:	4b19      	ldr	r3, [pc, #100]	; (8003ec0 <prvAddNewTaskToReadyList+0xf4>)
 8003e5a:	681b      	ldr	r3, [r3, #0]
 8003e5c:	b163      	cbz	r3, 8003e78 <prvAddNewTaskToReadyList+0xac>
 8003e5e:	682b      	ldr	r3, [r5, #0]
 8003e60:	6ada      	ldr	r2, [r3, #44]	; 0x2c
 8003e62:	6ae3      	ldr	r3, [r4, #44]	; 0x2c
 8003e64:	429a      	cmp	r2, r3
 8003e66:	d207      	bcs.n	8003e78 <prvAddNewTaskToReadyList+0xac>
 8003e68:	f04f 5280 	mov.w	r2, #268435456	; 0x10000000
 8003e6c:	4b15      	ldr	r3, [pc, #84]	; (8003ec4 <prvAddNewTaskToReadyList+0xf8>)
 8003e6e:	601a      	str	r2, [r3, #0]
 8003e70:	f3bf 8f4f 	dsb	sy
 8003e74:	f3bf 8f6f 	isb	sy
 8003e78:	e8bd 81f0 	ldmia.w	sp!, {r4, r5, r6, r7, r8, pc}
 8003e7c:	4b10      	ldr	r3, [pc, #64]	; (8003ec0 <prvAddNewTaskToReadyList+0xf4>)
 8003e7e:	681b      	ldr	r3, [r3, #0]
 8003e80:	2b00      	cmp	r3, #0
 8003e82:	d1d5      	bne.n	8003e30 <prvAddNewTaskToReadyList+0x64>
 8003e84:	682b      	ldr	r3, [r5, #0]
 8003e86:	6ada      	ldr	r2, [r3, #44]	; 0x2c
 8003e88:	6ae3      	ldr	r3, [r4, #44]	; 0x2c
 8003e8a:	429a      	cmp	r2, r3
 8003e8c:	bf98      	it	ls
 8003e8e:	602c      	strls	r4, [r5, #0]
 8003e90:	e7ce      	b.n	8003e30 <prvAddNewTaskToReadyList+0x64>
 8003e92:	bf00      	nop
 8003e94:	20000bc0 	.word	0x20000bc0
 8003e98:	20000754 	.word	0x20000754
 8003e9c:	20000760 	.word	0x20000760
 8003ea0:	20000bec 	.word	0x20000bec
 8003ea4:	20000c08 	.word	0x20000c08
 8003ea8:	20000c34 	.word	0x20000c34
 8003eac:	20000c20 	.word	0x20000c20
 8003eb0:	20000758 	.word	0x20000758
 8003eb4:	2000075c 	.word	0x2000075c
 8003eb8:	20000bd0 	.word	0x20000bd0
 8003ebc:	20000bd4 	.word	0x20000bd4
 8003ec0:	20000c1c 	.word	0x20000c1c
 8003ec4:	e000ed04 	.word	0xe000ed04
 8003ec8:	20000bd8 	.word	0x20000bd8

08003ecc <prvResetNextTaskUnblockTime>:
 8003ecc:	4a06      	ldr	r2, [pc, #24]	; (8003ee8 <prvResetNextTaskUnblockTime+0x1c>)
 8003ece:	6813      	ldr	r3, [r2, #0]
 8003ed0:	6819      	ldr	r1, [r3, #0]
 8003ed2:	4b06      	ldr	r3, [pc, #24]	; (8003eec <prvResetNextTaskUnblockTime+0x20>)
 8003ed4:	b919      	cbnz	r1, 8003ede <prvResetNextTaskUnblockTime+0x12>
 8003ed6:	f04f 32ff 	mov.w	r2, #4294967295
 8003eda:	601a      	str	r2, [r3, #0]
 8003edc:	4770      	bx	lr
 8003ede:	6812      	ldr	r2, [r2, #0]
 8003ee0:	68d2      	ldr	r2, [r2, #12]
 8003ee2:	68d2      	ldr	r2, [r2, #12]
 8003ee4:	6852      	ldr	r2, [r2, #4]
 8003ee6:	e7f8      	b.n	8003eda <prvResetNextTaskUnblockTime+0xe>
 8003ee8:	20000758 	.word	0x20000758
 8003eec:	20000c00 	.word	0x20000c00

08003ef0 <prvInitialiseNewTask.isra.0>:
 8003ef0:	e92d 47f0 	stmdb	sp!, {r4, r5, r6, r7, r8, r9, sl, lr}
 8003ef4:	460d      	mov	r5, r1
 8003ef6:	e9dd 8409 	ldrd	r8, r4, [sp, #36]	; 0x24
 8003efa:	ea4f 0982 	mov.w	r9, r2, lsl #2
 8003efe:	464a      	mov	r2, r9
 8003f00:	4606      	mov	r6, r0
 8003f02:	21a5      	movs	r1, #165	; 0xa5
 8003f04:	6b20      	ldr	r0, [r4, #48]	; 0x30
 8003f06:	461f      	mov	r7, r3
 8003f08:	f001 f864 	bl	8004fd4 <memset>
 8003f0c:	6b22      	ldr	r2, [r4, #48]	; 0x30
 8003f0e:	f1a9 0904 	sub.w	r9, r9, #4
 8003f12:	4491      	add	r9, r2
 8003f14:	1e6b      	subs	r3, r5, #1
 8003f16:	f029 0907 	bic.w	r9, r9, #7
 8003f1a:	f104 0234 	add.w	r2, r4, #52	; 0x34
 8003f1e:	350f      	adds	r5, #15
 8003f20:	f813 1f01 	ldrb.w	r1, [r3, #1]!
 8003f24:	f802 1b01 	strb.w	r1, [r2], #1
 8003f28:	7819      	ldrb	r1, [r3, #0]
 8003f2a:	b109      	cbz	r1, 8003f30 <prvInitialiseNewTask.isra.0+0x40>
 8003f2c:	42ab      	cmp	r3, r5
 8003f2e:	d1f7      	bne.n	8003f20 <prvInitialiseNewTask.isra.0+0x30>
 8003f30:	9d08      	ldr	r5, [sp, #32]
 8003f32:	f04f 0a00 	mov.w	sl, #0
 8003f36:	2d37      	cmp	r5, #55	; 0x37
 8003f38:	bf28      	it	cs
 8003f3a:	2537      	movcs	r5, #55	; 0x37
 8003f3c:	1d20      	adds	r0, r4, #4
 8003f3e:	e9c4 5a13 	strd	r5, sl, [r4, #76]	; 0x4c
 8003f42:	62e5      	str	r5, [r4, #44]	; 0x2c
 8003f44:	f884 a043 	strb.w	sl, [r4, #67]	; 0x43
 8003f48:	f7ff fc05 	bl	8003756 <vListInitialiseItem>
 8003f4c:	f1c5 0538 	rsb	r5, r5, #56	; 0x38
 8003f50:	f104 0018 	add.w	r0, r4, #24
 8003f54:	f7ff fbff 	bl	8003756 <vListInitialiseItem>
 8003f58:	f8c4 a054 	str.w	sl, [r4, #84]	; 0x54
 8003f5c:	463a      	mov	r2, r7
 8003f5e:	4631      	mov	r1, r6
 8003f60:	4648      	mov	r0, r9
 8003f62:	6124      	str	r4, [r4, #16]
 8003f64:	61a5      	str	r5, [r4, #24]
 8003f66:	6264      	str	r4, [r4, #36]	; 0x24
 8003f68:	f884 a058 	strb.w	sl, [r4, #88]	; 0x58
 8003f6c:	f000 fdde 	bl	8004b2c <pxPortInitialiseStack>
 8003f70:	6020      	str	r0, [r4, #0]
 8003f72:	f1b8 0f00 	cmp.w	r8, #0
 8003f76:	d001      	beq.n	8003f7c <prvInitialiseNewTask.isra.0+0x8c>
 8003f78:	f8c8 4000 	str.w	r4, [r8]
 8003f7c:	e8bd 87f0 	ldmia.w	sp!, {r4, r5, r6, r7, r8, r9, sl, pc}

08003f80 <prvDeleteTCB>:
 8003f80:	b510      	push	{r4, lr}
 8003f82:	f890 3059 	ldrb.w	r3, [r0, #89]	; 0x59
 8003f86:	4604      	mov	r4, r0
 8003f88:	b93b      	cbnz	r3, 8003f9a <prvDeleteTCB+0x1a>
 8003f8a:	6b00      	ldr	r0, [r0, #48]	; 0x30
 8003f8c:	f000 ffae 	bl	8004eec <vPortFree>
 8003f90:	4620      	mov	r0, r4
 8003f92:	e8bd 4010 	ldmia.w	sp!, {r4, lr}
 8003f96:	f000 bfa9 	b.w	8004eec <vPortFree>
 8003f9a:	2b01      	cmp	r3, #1
 8003f9c:	d0f9      	beq.n	8003f92 <prvDeleteTCB+0x12>
 8003f9e:	2b02      	cmp	r3, #2
 8003fa0:	d008      	beq.n	8003fb4 <prvDeleteTCB+0x34>
 8003fa2:	f04f 0350 	mov.w	r3, #80	; 0x50
 8003fa6:	f383 8811 	msr	BASEPRI, r3
 8003faa:	f3bf 8f6f 	isb	sy
 8003fae:	f3bf 8f4f 	dsb	sy
 8003fb2:	e7fe      	b.n	8003fb2 <prvDeleteTCB+0x32>
 8003fb4:	bd10      	pop	{r4, pc}
	...

08003fb8 <prvIdleTask>:
 8003fb8:	b580      	push	{r7, lr}
 8003fba:	f8df 805c 	ldr.w	r8, [pc, #92]	; 8004018 <prvIdleTask+0x60>
 8003fbe:	4f12      	ldr	r7, [pc, #72]	; (8004008 <prvIdleTask+0x50>)
 8003fc0:	4c12      	ldr	r4, [pc, #72]	; (800400c <prvIdleTask+0x54>)
 8003fc2:	4d13      	ldr	r5, [pc, #76]	; (8004010 <prvIdleTask+0x58>)
 8003fc4:	6823      	ldr	r3, [r4, #0]
 8003fc6:	b963      	cbnz	r3, 8003fe2 <prvIdleTask+0x2a>
 8003fc8:	4b12      	ldr	r3, [pc, #72]	; (8004014 <prvIdleTask+0x5c>)
 8003fca:	681b      	ldr	r3, [r3, #0]
 8003fcc:	2b01      	cmp	r3, #1
 8003fce:	d9f8      	bls.n	8003fc2 <prvIdleTask+0xa>
 8003fd0:	f04f 5380 	mov.w	r3, #268435456	; 0x10000000
 8003fd4:	f8c8 3000 	str.w	r3, [r8]
 8003fd8:	f3bf 8f4f 	dsb	sy
 8003fdc:	f3bf 8f6f 	isb	sy
 8003fe0:	e7ee      	b.n	8003fc0 <prvIdleTask+0x8>
 8003fe2:	f000 fdc7 	bl	8004b74 <vPortEnterCritical>
 8003fe6:	68fb      	ldr	r3, [r7, #12]
 8003fe8:	68de      	ldr	r6, [r3, #12]
 8003fea:	1d30      	adds	r0, r6, #4
 8003fec:	f7ff fbd9 	bl	80037a2 <uxListRemove>
 8003ff0:	682b      	ldr	r3, [r5, #0]
 8003ff2:	3b01      	subs	r3, #1
 8003ff4:	602b      	str	r3, [r5, #0]
 8003ff6:	6823      	ldr	r3, [r4, #0]
 8003ff8:	3b01      	subs	r3, #1
 8003ffa:	6023      	str	r3, [r4, #0]
 8003ffc:	f000 fddc 	bl	8004bb8 <vPortExitCritical>
 8004000:	4630      	mov	r0, r6
 8004002:	f7ff ffbd 	bl	8003f80 <prvDeleteTCB>
 8004006:	e7dd      	b.n	8003fc4 <prvIdleTask+0xc>
 8004008:	20000c34 	.word	0x20000c34
 800400c:	20000bc4 	.word	0x20000bc4
 8004010:	20000bc0 	.word	0x20000bc0
 8004014:	20000760 	.word	0x20000760
 8004018:	e000ed04 	.word	0xe000ed04

0800401c <prvAddCurrentTaskToDelayedList>:
 800401c:	b5f8      	push	{r3, r4, r5, r6, r7, lr}
 800401e:	4605      	mov	r5, r0
 8004020:	4b15      	ldr	r3, [pc, #84]	; (8004078 <prvAddCurrentTaskToDelayedList+0x5c>)
 8004022:	4e16      	ldr	r6, [pc, #88]	; (800407c <prvAddCurrentTaskToDelayedList+0x60>)
 8004024:	681c      	ldr	r4, [r3, #0]
 8004026:	6830      	ldr	r0, [r6, #0]
 8004028:	460f      	mov	r7, r1
 800402a:	3004      	adds	r0, #4
 800402c:	f7ff fbb9 	bl	80037a2 <uxListRemove>
 8004030:	1c6b      	adds	r3, r5, #1
 8004032:	4633      	mov	r3, r6
 8004034:	d107      	bne.n	8004046 <prvAddCurrentTaskToDelayedList+0x2a>
 8004036:	b137      	cbz	r7, 8004046 <prvAddCurrentTaskToDelayedList+0x2a>
 8004038:	6831      	ldr	r1, [r6, #0]
 800403a:	4811      	ldr	r0, [pc, #68]	; (8004080 <prvAddCurrentTaskToDelayedList+0x64>)
 800403c:	3104      	adds	r1, #4
 800403e:	e8bd 40f8 	ldmia.w	sp!, {r3, r4, r5, r6, r7, lr}
 8004042:	f7ff bb8b 	b.w	800375c <vListInsertEnd>
 8004046:	681a      	ldr	r2, [r3, #0]
 8004048:	1964      	adds	r4, r4, r5
 800404a:	6054      	str	r4, [r2, #4]
 800404c:	d307      	bcc.n	800405e <prvAddCurrentTaskToDelayedList+0x42>
 800404e:	4a0d      	ldr	r2, [pc, #52]	; (8004084 <prvAddCurrentTaskToDelayedList+0x68>)
 8004050:	6810      	ldr	r0, [r2, #0]
 8004052:	6819      	ldr	r1, [r3, #0]
 8004054:	e8bd 40f8 	ldmia.w	sp!, {r3, r4, r5, r6, r7, lr}
 8004058:	3104      	adds	r1, #4
 800405a:	f7ff bb8b 	b.w	8003774 <vListInsert>
 800405e:	4a0a      	ldr	r2, [pc, #40]	; (8004088 <prvAddCurrentTaskToDelayedList+0x6c>)
 8004060:	6810      	ldr	r0, [r2, #0]
 8004062:	6819      	ldr	r1, [r3, #0]
 8004064:	3104      	adds	r1, #4
 8004066:	f7ff fb85 	bl	8003774 <vListInsert>
 800406a:	4b08      	ldr	r3, [pc, #32]	; (800408c <prvAddCurrentTaskToDelayedList+0x70>)
 800406c:	681a      	ldr	r2, [r3, #0]
 800406e:	42a2      	cmp	r2, r4
 8004070:	bf88      	it	hi
 8004072:	601c      	strhi	r4, [r3, #0]
 8004074:	bdf8      	pop	{r3, r4, r5, r6, r7, pc}
 8004076:	bf00      	nop
 8004078:	20000c48 	.word	0x20000c48
 800407c:	20000754 	.word	0x20000754
 8004080:	20000c20 	.word	0x20000c20
 8004084:	2000075c 	.word	0x2000075c
 8004088:	20000758 	.word	0x20000758
 800408c:	20000c00 	.word	0x20000c00

08004090 <xTaskCreateStatic>:
 8004090:	b570      	push	{r4, r5, r6, lr}
 8004092:	b086      	sub	sp, #24
 8004094:	e9dd 540b 	ldrd	r5, r4, [sp, #44]	; 0x2c
 8004098:	b945      	cbnz	r5, 80040ac <xTaskCreateStatic+0x1c>
 800409a:	f04f 0350 	mov.w	r3, #80	; 0x50
 800409e:	f383 8811 	msr	BASEPRI, r3
 80040a2:	f3bf 8f6f 	isb	sy
 80040a6:	f3bf 8f4f 	dsb	sy
 80040aa:	e7fe      	b.n	80040aa <xTaskCreateStatic+0x1a>
 80040ac:	b944      	cbnz	r4, 80040c0 <xTaskCreateStatic+0x30>
 80040ae:	f04f 0350 	mov.w	r3, #80	; 0x50
 80040b2:	f383 8811 	msr	BASEPRI, r3
 80040b6:	f3bf 8f6f 	isb	sy
 80040ba:	f3bf 8f4f 	dsb	sy
 80040be:	e7fe      	b.n	80040be <xTaskCreateStatic+0x2e>
 80040c0:	265c      	movs	r6, #92	; 0x5c
 80040c2:	9604      	str	r6, [sp, #16]
 80040c4:	9e04      	ldr	r6, [sp, #16]
 80040c6:	2e5c      	cmp	r6, #92	; 0x5c
 80040c8:	d008      	beq.n	80040dc <xTaskCreateStatic+0x4c>
 80040ca:	f04f 0350 	mov.w	r3, #80	; 0x50
 80040ce:	f383 8811 	msr	BASEPRI, r3
 80040d2:	f3bf 8f6f 	isb	sy
 80040d6:	f3bf 8f4f 	dsb	sy
 80040da:	e7fe      	b.n	80040da <xTaskCreateStatic+0x4a>
 80040dc:	6325      	str	r5, [r4, #48]	; 0x30
 80040de:	2502      	movs	r5, #2
 80040e0:	f884 5059 	strb.w	r5, [r4, #89]	; 0x59
 80040e4:	ad05      	add	r5, sp, #20
 80040e6:	9501      	str	r5, [sp, #4]
 80040e8:	9d0a      	ldr	r5, [sp, #40]	; 0x28
 80040ea:	9402      	str	r4, [sp, #8]
 80040ec:	9500      	str	r5, [sp, #0]
 80040ee:	f7ff feff 	bl	8003ef0 <prvInitialiseNewTask.isra.0>
 80040f2:	4620      	mov	r0, r4
 80040f4:	f7ff fe6a 	bl	8003dcc <prvAddNewTaskToReadyList>
 80040f8:	9805      	ldr	r0, [sp, #20]
 80040fa:	b006      	add	sp, #24
 80040fc:	bd70      	pop	{r4, r5, r6, pc}

080040fe <xTaskCreate>:
 80040fe:	e92d 43f0 	stmdb	sp!, {r4, r5, r6, r7, r8, r9, lr}
 8004102:	4607      	mov	r7, r0
 8004104:	b085      	sub	sp, #20
 8004106:	0090      	lsls	r0, r2, #2
 8004108:	4688      	mov	r8, r1
 800410a:	4616      	mov	r6, r2
 800410c:	4699      	mov	r9, r3
 800410e:	f000 fe63 	bl	8004dd8 <pvPortMalloc>
 8004112:	4605      	mov	r5, r0
 8004114:	b1e8      	cbz	r0, 8004152 <xTaskCreate+0x54>
 8004116:	205c      	movs	r0, #92	; 0x5c
 8004118:	f000 fe5e 	bl	8004dd8 <pvPortMalloc>
 800411c:	4604      	mov	r4, r0
 800411e:	b1a8      	cbz	r0, 800414c <xTaskCreate+0x4e>
 8004120:	2300      	movs	r3, #0
 8004122:	f880 3059 	strb.w	r3, [r0, #89]	; 0x59
 8004126:	9b0d      	ldr	r3, [sp, #52]	; 0x34
 8004128:	6305      	str	r5, [r0, #48]	; 0x30
 800412a:	9301      	str	r3, [sp, #4]
 800412c:	9b0c      	ldr	r3, [sp, #48]	; 0x30
 800412e:	4632      	mov	r2, r6
 8004130:	4641      	mov	r1, r8
 8004132:	9002      	str	r0, [sp, #8]
 8004134:	9300      	str	r3, [sp, #0]
 8004136:	4638      	mov	r0, r7
 8004138:	464b      	mov	r3, r9
 800413a:	f7ff fed9 	bl	8003ef0 <prvInitialiseNewTask.isra.0>
 800413e:	4620      	mov	r0, r4
 8004140:	f7ff fe44 	bl	8003dcc <prvAddNewTaskToReadyList>
 8004144:	2001      	movs	r0, #1
 8004146:	b005      	add	sp, #20
 8004148:	e8bd 83f0 	ldmia.w	sp!, {r4, r5, r6, r7, r8, r9, pc}
 800414c:	4628      	mov	r0, r5
 800414e:	f000 fecd 	bl	8004eec <vPortFree>
 8004152:	f04f 30ff 	mov.w	r0, #4294967295
 8004156:	e7f6      	b.n	8004146 <xTaskCreate+0x48>

08004158 <vTaskStartScheduler>:
 8004158:	b510      	push	{r4, lr}
 800415a:	2400      	movs	r4, #0
 800415c:	b088      	sub	sp, #32
 800415e:	aa07      	add	r2, sp, #28
 8004160:	a906      	add	r1, sp, #24
 8004162:	a805      	add	r0, sp, #20
 8004164:	e9cd 4405 	strd	r4, r4, [sp, #20]
 8004168:	f7ff fad2 	bl	8003710 <vApplicationGetIdleTaskMemory>
 800416c:	9b05      	ldr	r3, [sp, #20]
 800416e:	9a07      	ldr	r2, [sp, #28]
 8004170:	9302      	str	r3, [sp, #8]
 8004172:	9b06      	ldr	r3, [sp, #24]
 8004174:	4915      	ldr	r1, [pc, #84]	; (80041cc <vTaskStartScheduler+0x74>)
 8004176:	e9cd 4300 	strd	r4, r3, [sp]
 800417a:	4815      	ldr	r0, [pc, #84]	; (80041d0 <vTaskStartScheduler+0x78>)
 800417c:	4623      	mov	r3, r4
 800417e:	f7ff ff87 	bl	8004090 <xTaskCreateStatic>
 8004182:	b1a8      	cbz	r0, 80041b0 <vTaskStartScheduler+0x58>
 8004184:	f000 fb0a 	bl	800479c <xTimerCreateTimerTask>
 8004188:	2801      	cmp	r0, #1
 800418a:	d113      	bne.n	80041b4 <vTaskStartScheduler+0x5c>
 800418c:	f04f 0350 	mov.w	r3, #80	; 0x50
 8004190:	f383 8811 	msr	BASEPRI, r3
 8004194:	f3bf 8f6f 	isb	sy
 8004198:	f3bf 8f4f 	dsb	sy
 800419c:	f04f 32ff 	mov.w	r2, #4294967295
 80041a0:	4b0c      	ldr	r3, [pc, #48]	; (80041d4 <vTaskStartScheduler+0x7c>)
 80041a2:	601a      	str	r2, [r3, #0]
 80041a4:	4b0c      	ldr	r3, [pc, #48]	; (80041d8 <vTaskStartScheduler+0x80>)
 80041a6:	6018      	str	r0, [r3, #0]
 80041a8:	4b0c      	ldr	r3, [pc, #48]	; (80041dc <vTaskStartScheduler+0x84>)
 80041aa:	601c      	str	r4, [r3, #0]
 80041ac:	f000 fd6a 	bl	8004c84 <xPortStartScheduler>
 80041b0:	b008      	add	sp, #32
 80041b2:	bd10      	pop	{r4, pc}
 80041b4:	3001      	adds	r0, #1
 80041b6:	d1fb      	bne.n	80041b0 <vTaskStartScheduler+0x58>
 80041b8:	f04f 0350 	mov.w	r3, #80	; 0x50
 80041bc:	f383 8811 	msr	BASEPRI, r3
 80041c0:	f3bf 8f6f 	isb	sy
 80041c4:	f3bf 8f4f 	dsb	sy
 80041c8:	e7fe      	b.n	80041c8 <vTaskStartScheduler+0x70>
 80041ca:	bf00      	nop
 80041cc:	08006511 	.word	0x08006511
 80041d0:	08003fb9 	.word	0x08003fb9
 80041d4:	20000c00 	.word	0x20000c00
 80041d8:	20000c1c 	.word	0x20000c1c
 80041dc:	20000c48 	.word	0x20000c48

080041e0 <vTaskSuspendAll>:
 80041e0:	4a02      	ldr	r2, [pc, #8]	; (80041ec <vTaskSuspendAll+0xc>)
 80041e2:	6813      	ldr	r3, [r2, #0]
 80041e4:	3301      	adds	r3, #1
 80041e6:	6013      	str	r3, [r2, #0]
 80041e8:	4770      	bx	lr
 80041ea:	bf00      	nop
 80041ec:	20000bcc 	.word	0x20000bcc

080041f0 <xTaskGetTickCount>:
 80041f0:	4b01      	ldr	r3, [pc, #4]	; (80041f8 <xTaskGetTickCount+0x8>)
 80041f2:	6818      	ldr	r0, [r3, #0]
 80041f4:	4770      	bx	lr
 80041f6:	bf00      	nop
 80041f8:	20000c48 	.word	0x20000c48

080041fc <xTaskIncrementTick>:
 80041fc:	e92d 4ff8 	stmdb	sp!, {r3, r4, r5, r6, r7, r8, r9, sl, fp, lr}
 8004200:	4b3b      	ldr	r3, [pc, #236]	; (80042f0 <xTaskIncrementTick+0xf4>)
 8004202:	681b      	ldr	r3, [r3, #0]
 8004204:	2b00      	cmp	r3, #0
 8004206:	d16d      	bne.n	80042e4 <xTaskIncrementTick+0xe8>
 8004208:	4b3a      	ldr	r3, [pc, #232]	; (80042f4 <xTaskIncrementTick+0xf8>)
 800420a:	681d      	ldr	r5, [r3, #0]
 800420c:	3501      	adds	r5, #1
 800420e:	601d      	str	r5, [r3, #0]
 8004210:	b9bd      	cbnz	r5, 8004242 <xTaskIncrementTick+0x46>
 8004212:	4b39      	ldr	r3, [pc, #228]	; (80042f8 <xTaskIncrementTick+0xfc>)
 8004214:	681a      	ldr	r2, [r3, #0]
 8004216:	6812      	ldr	r2, [r2, #0]
 8004218:	b142      	cbz	r2, 800422c <xTaskIncrementTick+0x30>
 800421a:	f04f 0350 	mov.w	r3, #80	; 0x50
 800421e:	f383 8811 	msr	BASEPRI, r3
 8004222:	f3bf 8f6f 	isb	sy
 8004226:	f3bf 8f4f 	dsb	sy
 800422a:	e7fe      	b.n	800422a <xTaskIncrementTick+0x2e>
 800422c:	4a33      	ldr	r2, [pc, #204]	; (80042fc <xTaskIncrementTick+0x100>)
 800422e:	6819      	ldr	r1, [r3, #0]
 8004230:	6810      	ldr	r0, [r2, #0]
 8004232:	6018      	str	r0, [r3, #0]
 8004234:	6011      	str	r1, [r2, #0]
 8004236:	4a32      	ldr	r2, [pc, #200]	; (8004300 <xTaskIncrementTick+0x104>)
 8004238:	6813      	ldr	r3, [r2, #0]
 800423a:	3301      	adds	r3, #1
 800423c:	6013      	str	r3, [r2, #0]
 800423e:	f7ff fe45 	bl	8003ecc <prvResetNextTaskUnblockTime>
 8004242:	4e30      	ldr	r6, [pc, #192]	; (8004304 <xTaskIncrementTick+0x108>)
 8004244:	2400      	movs	r4, #0
 8004246:	6833      	ldr	r3, [r6, #0]
 8004248:	4f2f      	ldr	r7, [pc, #188]	; (8004308 <xTaskIncrementTick+0x10c>)
 800424a:	42ab      	cmp	r3, r5
 800424c:	d910      	bls.n	8004270 <xTaskIncrementTick+0x74>
 800424e:	4b2f      	ldr	r3, [pc, #188]	; (800430c <xTaskIncrementTick+0x110>)
 8004250:	681b      	ldr	r3, [r3, #0]
 8004252:	6ada      	ldr	r2, [r3, #44]	; 0x2c
 8004254:	2314      	movs	r3, #20
 8004256:	4353      	muls	r3, r2
 8004258:	58fb      	ldr	r3, [r7, r3]
 800425a:	2b02      	cmp	r3, #2
 800425c:	bf28      	it	cs
 800425e:	2401      	movcs	r4, #1
 8004260:	4b2b      	ldr	r3, [pc, #172]	; (8004310 <xTaskIncrementTick+0x114>)
 8004262:	681b      	ldr	r3, [r3, #0]
 8004264:	2b00      	cmp	r3, #0
 8004266:	bf0c      	ite	eq
 8004268:	4620      	moveq	r0, r4
 800426a:	2001      	movne	r0, #1
 800426c:	e8bd 8ff8 	ldmia.w	sp!, {r3, r4, r5, r6, r7, r8, r9, sl, fp, pc}
 8004270:	f8df 9084 	ldr.w	r9, [pc, #132]	; 80042f8 <xTaskIncrementTick+0xfc>
 8004274:	f8df a0a0 	ldr.w	sl, [pc, #160]	; 8004318 <xTaskIncrementTick+0x11c>
 8004278:	f8d9 3000 	ldr.w	r3, [r9]
 800427c:	681b      	ldr	r3, [r3, #0]
 800427e:	b91b      	cbnz	r3, 8004288 <xTaskIncrementTick+0x8c>
 8004280:	f04f 33ff 	mov.w	r3, #4294967295
 8004284:	6033      	str	r3, [r6, #0]
 8004286:	e7e2      	b.n	800424e <xTaskIncrementTick+0x52>
 8004288:	f8d9 3000 	ldr.w	r3, [r9]
 800428c:	68db      	ldr	r3, [r3, #12]
 800428e:	f8d3 b00c 	ldr.w	fp, [r3, #12]
 8004292:	f8db 2004 	ldr.w	r2, [fp, #4]
 8004296:	4295      	cmp	r5, r2
 8004298:	d201      	bcs.n	800429e <xTaskIncrementTick+0xa2>
 800429a:	6032      	str	r2, [r6, #0]
 800429c:	e7d7      	b.n	800424e <xTaskIncrementTick+0x52>
 800429e:	f10b 0804 	add.w	r8, fp, #4
 80042a2:	4640      	mov	r0, r8
 80042a4:	f7ff fa7d 	bl	80037a2 <uxListRemove>
 80042a8:	f8db 2028 	ldr.w	r2, [fp, #40]	; 0x28
 80042ac:	b11a      	cbz	r2, 80042b6 <xTaskIncrementTick+0xba>
 80042ae:	f10b 0018 	add.w	r0, fp, #24
 80042b2:	f7ff fa76 	bl	80037a2 <uxListRemove>
 80042b6:	2314      	movs	r3, #20
 80042b8:	f8db 002c 	ldr.w	r0, [fp, #44]	; 0x2c
 80042bc:	f8da 2000 	ldr.w	r2, [sl]
 80042c0:	4641      	mov	r1, r8
 80042c2:	4290      	cmp	r0, r2
 80042c4:	bf88      	it	hi
 80042c6:	f8ca 0000 	strhi.w	r0, [sl]
 80042ca:	fb03 7000 	mla	r0, r3, r0, r7
 80042ce:	f7ff fa45 	bl	800375c <vListInsertEnd>
 80042d2:	4b0e      	ldr	r3, [pc, #56]	; (800430c <xTaskIncrementTick+0x110>)
 80042d4:	f8db 202c 	ldr.w	r2, [fp, #44]	; 0x2c
 80042d8:	6819      	ldr	r1, [r3, #0]
 80042da:	6acb      	ldr	r3, [r1, #44]	; 0x2c
 80042dc:	429a      	cmp	r2, r3
 80042de:	bf28      	it	cs
 80042e0:	2401      	movcs	r4, #1
 80042e2:	e7c9      	b.n	8004278 <xTaskIncrementTick+0x7c>
 80042e4:	4a0b      	ldr	r2, [pc, #44]	; (8004314 <xTaskIncrementTick+0x118>)
 80042e6:	2400      	movs	r4, #0
 80042e8:	6813      	ldr	r3, [r2, #0]
 80042ea:	3301      	adds	r3, #1
 80042ec:	6013      	str	r3, [r2, #0]
 80042ee:	e7b7      	b.n	8004260 <xTaskIncrementTick+0x64>
 80042f0:	20000bcc 	.word	0x20000bcc
 80042f4:	20000c48 	.word	0x20000c48
 80042f8:	20000758 	.word	0x20000758
 80042fc:	2000075c 	.word	0x2000075c
 8004300:	20000c04 	.word	0x20000c04
 8004304:	20000c00 	.word	0x20000c00
 8004308:	20000760 	.word	0x20000760
 800430c:	20000754 	.word	0x20000754
 8004310:	20000c4c 	.word	0x20000c4c
 8004314:	20000bc8 	.word	0x20000bc8
 8004318:	20000bd4 	.word	0x20000bd4

0800431c <xTaskResumeAll>:
 800431c:	e92d 41f0 	stmdb	sp!, {r4, r5, r6, r7, r8, lr}
 8004320:	4c2f      	ldr	r4, [pc, #188]	; (80043e0 <xTaskResumeAll+0xc4>)
 8004322:	6823      	ldr	r3, [r4, #0]
 8004324:	b943      	cbnz	r3, 8004338 <xTaskResumeAll+0x1c>
 8004326:	f04f 0350 	mov.w	r3, #80	; 0x50
 800432a:	f383 8811 	msr	BASEPRI, r3
 800432e:	f3bf 8f6f 	isb	sy
 8004332:	f3bf 8f4f 	dsb	sy
 8004336:	e7fe      	b.n	8004336 <xTaskResumeAll+0x1a>
 8004338:	f000 fc1c 	bl	8004b74 <vPortEnterCritical>
 800433c:	6823      	ldr	r3, [r4, #0]
 800433e:	3b01      	subs	r3, #1
 8004340:	6023      	str	r3, [r4, #0]
 8004342:	6824      	ldr	r4, [r4, #0]
 8004344:	b12c      	cbz	r4, 8004352 <xTaskResumeAll+0x36>
 8004346:	2400      	movs	r4, #0
 8004348:	f000 fc36 	bl	8004bb8 <vPortExitCritical>
 800434c:	4620      	mov	r0, r4
 800434e:	e8bd 81f0 	ldmia.w	sp!, {r4, r5, r6, r7, r8, pc}
 8004352:	4b24      	ldr	r3, [pc, #144]	; (80043e4 <xTaskResumeAll+0xc8>)
 8004354:	681b      	ldr	r3, [r3, #0]
 8004356:	2b00      	cmp	r3, #0
 8004358:	d0f5      	beq.n	8004346 <xTaskResumeAll+0x2a>
 800435a:	4d23      	ldr	r5, [pc, #140]	; (80043e8 <xTaskResumeAll+0xcc>)
 800435c:	4e23      	ldr	r6, [pc, #140]	; (80043ec <xTaskResumeAll+0xd0>)
 800435e:	f8df 80a0 	ldr.w	r8, [pc, #160]	; 8004400 <xTaskResumeAll+0xe4>
 8004362:	e01d      	b.n	80043a0 <xTaskResumeAll+0x84>
 8004364:	68eb      	ldr	r3, [r5, #12]
 8004366:	68dc      	ldr	r4, [r3, #12]
 8004368:	1d27      	adds	r7, r4, #4
 800436a:	f104 0018 	add.w	r0, r4, #24
 800436e:	f7ff fa18 	bl	80037a2 <uxListRemove>
 8004372:	4638      	mov	r0, r7
 8004374:	f7ff fa15 	bl	80037a2 <uxListRemove>
 8004378:	2014      	movs	r0, #20
 800437a:	6ae3      	ldr	r3, [r4, #44]	; 0x2c
 800437c:	6832      	ldr	r2, [r6, #0]
 800437e:	fb00 8003 	mla	r0, r0, r3, r8
 8004382:	4293      	cmp	r3, r2
 8004384:	4639      	mov	r1, r7
 8004386:	bf88      	it	hi
 8004388:	6033      	strhi	r3, [r6, #0]
 800438a:	f7ff f9e7 	bl	800375c <vListInsertEnd>
 800438e:	4b18      	ldr	r3, [pc, #96]	; (80043f0 <xTaskResumeAll+0xd4>)
 8004390:	6ae2      	ldr	r2, [r4, #44]	; 0x2c
 8004392:	681b      	ldr	r3, [r3, #0]
 8004394:	6adb      	ldr	r3, [r3, #44]	; 0x2c
 8004396:	429a      	cmp	r2, r3
 8004398:	d302      	bcc.n	80043a0 <xTaskResumeAll+0x84>
 800439a:	2201      	movs	r2, #1
 800439c:	4b15      	ldr	r3, [pc, #84]	; (80043f4 <xTaskResumeAll+0xd8>)
 800439e:	601a      	str	r2, [r3, #0]
 80043a0:	682b      	ldr	r3, [r5, #0]
 80043a2:	2b00      	cmp	r3, #0
 80043a4:	d1de      	bne.n	8004364 <xTaskResumeAll+0x48>
 80043a6:	b10c      	cbz	r4, 80043ac <xTaskResumeAll+0x90>
 80043a8:	f7ff fd90 	bl	8003ecc <prvResetNextTaskUnblockTime>
 80043ac:	4d12      	ldr	r5, [pc, #72]	; (80043f8 <xTaskResumeAll+0xdc>)
 80043ae:	682c      	ldr	r4, [r5, #0]
 80043b0:	b144      	cbz	r4, 80043c4 <xTaskResumeAll+0xa8>
 80043b2:	2701      	movs	r7, #1
 80043b4:	4e0f      	ldr	r6, [pc, #60]	; (80043f4 <xTaskResumeAll+0xd8>)
 80043b6:	f7ff ff21 	bl	80041fc <xTaskIncrementTick>
 80043ba:	b100      	cbz	r0, 80043be <xTaskResumeAll+0xa2>
 80043bc:	6037      	str	r7, [r6, #0]
 80043be:	3c01      	subs	r4, #1
 80043c0:	d1f9      	bne.n	80043b6 <xTaskResumeAll+0x9a>
 80043c2:	602c      	str	r4, [r5, #0]
 80043c4:	4b0b      	ldr	r3, [pc, #44]	; (80043f4 <xTaskResumeAll+0xd8>)
 80043c6:	681b      	ldr	r3, [r3, #0]
 80043c8:	2b00      	cmp	r3, #0
 80043ca:	d0bc      	beq.n	8004346 <xTaskResumeAll+0x2a>
 80043cc:	f04f 5280 	mov.w	r2, #268435456	; 0x10000000
 80043d0:	4b0a      	ldr	r3, [pc, #40]	; (80043fc <xTaskResumeAll+0xe0>)
 80043d2:	601a      	str	r2, [r3, #0]
 80043d4:	f3bf 8f4f 	dsb	sy
 80043d8:	f3bf 8f6f 	isb	sy
 80043dc:	2401      	movs	r4, #1
 80043de:	e7b3      	b.n	8004348 <xTaskResumeAll+0x2c>
 80043e0:	20000bcc 	.word	0x20000bcc
 80043e4:	20000bc0 	.word	0x20000bc0
 80043e8:	20000c08 	.word	0x20000c08
 80043ec:	20000bd4 	.word	0x20000bd4
 80043f0:	20000754 	.word	0x20000754
 80043f4:	20000c4c 	.word	0x20000c4c
 80043f8:	20000bc8 	.word	0x20000bc8
 80043fc:	e000ed04 	.word	0xe000ed04
 8004400:	20000760 	.word	0x20000760

08004404 <vTaskDelay>:
 8004404:	b508      	push	{r3, lr}
 8004406:	b940      	cbnz	r0, 800441a <vTaskDelay+0x16>
 8004408:	f04f 5280 	mov.w	r2, #268435456	; 0x10000000
 800440c:	4b0d      	ldr	r3, [pc, #52]	; (8004444 <vTaskDelay+0x40>)
 800440e:	601a      	str	r2, [r3, #0]
 8004410:	f3bf 8f4f 	dsb	sy
 8004414:	f3bf 8f6f 	isb	sy
 8004418:	bd08      	pop	{r3, pc}
 800441a:	4b0b      	ldr	r3, [pc, #44]	; (8004448 <vTaskDelay+0x44>)
 800441c:	6819      	ldr	r1, [r3, #0]
 800441e:	b141      	cbz	r1, 8004432 <vTaskDelay+0x2e>
 8004420:	f04f 0350 	mov.w	r3, #80	; 0x50
 8004424:	f383 8811 	msr	BASEPRI, r3
 8004428:	f3bf 8f6f 	isb	sy
 800442c:	f3bf 8f4f 	dsb	sy
 8004430:	e7fe      	b.n	8004430 <vTaskDelay+0x2c>
 8004432:	f7ff fed5 	bl	80041e0 <vTaskSuspendAll>
 8004436:	f7ff fdf1 	bl	800401c <prvAddCurrentTaskToDelayedList>
 800443a:	f7ff ff6f 	bl	800431c <xTaskResumeAll>
 800443e:	2800      	cmp	r0, #0
 8004440:	d0e2      	beq.n	8004408 <vTaskDelay+0x4>
 8004442:	e7e9      	b.n	8004418 <vTaskDelay+0x14>
 8004444:	e000ed04 	.word	0xe000ed04
 8004448:	20000bcc 	.word	0x20000bcc

0800444c <vTaskSwitchContext>:
 800444c:	4b18      	ldr	r3, [pc, #96]	; (80044b0 <vTaskSwitchContext+0x64>)
 800444e:	b5f0      	push	{r4, r5, r6, r7, lr}
 8004450:	681a      	ldr	r2, [r3, #0]
 8004452:	4b18      	ldr	r3, [pc, #96]	; (80044b4 <vTaskSwitchContext+0x68>)
 8004454:	b112      	cbz	r2, 800445c <vTaskSwitchContext+0x10>
 8004456:	2201      	movs	r2, #1
 8004458:	601a      	str	r2, [r3, #0]
 800445a:	bdf0      	pop	{r4, r5, r6, r7, pc}
 800445c:	601a      	str	r2, [r3, #0]
 800445e:	4a16      	ldr	r2, [pc, #88]	; (80044b8 <vTaskSwitchContext+0x6c>)
 8004460:	2714      	movs	r7, #20
 8004462:	4616      	mov	r6, r2
 8004464:	4d15      	ldr	r5, [pc, #84]	; (80044bc <vTaskSwitchContext+0x70>)
 8004466:	682b      	ldr	r3, [r5, #0]
 8004468:	fb07 f103 	mul.w	r1, r7, r3
 800446c:	5854      	ldr	r4, [r2, r1]
 800446e:	1850      	adds	r0, r2, r1
 8004470:	b194      	cbz	r4, 8004498 <vTaskSwitchContext+0x4c>
 8004472:	6844      	ldr	r4, [r0, #4]
 8004474:	3108      	adds	r1, #8
 8004476:	6864      	ldr	r4, [r4, #4]
 8004478:	440a      	add	r2, r1
 800447a:	4294      	cmp	r4, r2
 800447c:	bf08      	it	eq
 800447e:	6862      	ldreq	r2, [r4, #4]
 8004480:	6044      	str	r4, [r0, #4]
 8004482:	bf08      	it	eq
 8004484:	6042      	streq	r2, [r0, #4]
 8004486:	2214      	movs	r2, #20
 8004488:	fb02 6203 	mla	r2, r2, r3, r6
 800448c:	6852      	ldr	r2, [r2, #4]
 800448e:	68d1      	ldr	r1, [r2, #12]
 8004490:	4a0b      	ldr	r2, [pc, #44]	; (80044c0 <vTaskSwitchContext+0x74>)
 8004492:	6011      	str	r1, [r2, #0]
 8004494:	602b      	str	r3, [r5, #0]
 8004496:	e7e0      	b.n	800445a <vTaskSwitchContext+0xe>
 8004498:	b943      	cbnz	r3, 80044ac <vTaskSwitchContext+0x60>
 800449a:	f04f 0350 	mov.w	r3, #80	; 0x50
 800449e:	f383 8811 	msr	BASEPRI, r3
 80044a2:	f3bf 8f6f 	isb	sy
 80044a6:	f3bf 8f4f 	dsb	sy
 80044aa:	e7fe      	b.n	80044aa <vTaskSwitchContext+0x5e>
 80044ac:	3b01      	subs	r3, #1
 80044ae:	e7db      	b.n	8004468 <vTaskSwitchContext+0x1c>
 80044b0:	20000bcc 	.word	0x20000bcc
 80044b4:	20000c4c 	.word	0x20000c4c
 80044b8:	20000760 	.word	0x20000760
 80044bc:	20000bd4 	.word	0x20000bd4
 80044c0:	20000754 	.word	0x20000754

080044c4 <vTaskPlaceOnEventList>:
 80044c4:	b510      	push	{r4, lr}
 80044c6:	460c      	mov	r4, r1
 80044c8:	b940      	cbnz	r0, 80044dc <vTaskPlaceOnEventList+0x18>
 80044ca:	f04f 0350 	mov.w	r3, #80	; 0x50
 80044ce:	f383 8811 	msr	BASEPRI, r3
 80044d2:	f3bf 8f6f 	isb	sy
 80044d6:	f3bf 8f4f 	dsb	sy
 80044da:	e7fe      	b.n	80044da <vTaskPlaceOnEventList+0x16>
 80044dc:	4b05      	ldr	r3, [pc, #20]	; (80044f4 <vTaskPlaceOnEventList+0x30>)
 80044de:	6819      	ldr	r1, [r3, #0]
 80044e0:	3118      	adds	r1, #24
 80044e2:	f7ff f947 	bl	8003774 <vListInsert>
 80044e6:	4620      	mov	r0, r4
 80044e8:	e8bd 4010 	ldmia.w	sp!, {r4, lr}
 80044ec:	2101      	movs	r1, #1
 80044ee:	f7ff bd95 	b.w	800401c <prvAddCurrentTaskToDelayedList>
 80044f2:	bf00      	nop
 80044f4:	20000754 	.word	0x20000754

080044f8 <vTaskPlaceOnEventListRestricted>:
 80044f8:	b538      	push	{r3, r4, r5, lr}
 80044fa:	460d      	mov	r5, r1
 80044fc:	4614      	mov	r4, r2
 80044fe:	b940      	cbnz	r0, 8004512 <vTaskPlaceOnEventListRestricted+0x1a>
 8004500:	f04f 0350 	mov.w	r3, #80	; 0x50
 8004504:	f383 8811 	msr	BASEPRI, r3
 8004508:	f3bf 8f6f 	isb	sy
 800450c:	f3bf 8f4f 	dsb	sy
 8004510:	e7fe      	b.n	8004510 <vTaskPlaceOnEventListRestricted+0x18>
 8004512:	4b08      	ldr	r3, [pc, #32]	; (8004534 <vTaskPlaceOnEventListRestricted+0x3c>)
 8004514:	6819      	ldr	r1, [r3, #0]
 8004516:	3118      	adds	r1, #24
 8004518:	f7ff f920 	bl	800375c <vListInsertEnd>
 800451c:	2c00      	cmp	r4, #0
 800451e:	4621      	mov	r1, r4
 8004520:	bf08      	it	eq
 8004522:	4628      	moveq	r0, r5
 8004524:	e8bd 4038 	ldmia.w	sp!, {r3, r4, r5, lr}
 8004528:	bf18      	it	ne
 800452a:	f04f 30ff 	movne.w	r0, #4294967295
 800452e:	f7ff bd75 	b.w	800401c <prvAddCurrentTaskToDelayedList>
 8004532:	bf00      	nop
 8004534:	20000754 	.word	0x20000754

08004538 <xTaskRemoveFromEventList>:
 8004538:	b538      	push	{r3, r4, r5, lr}
 800453a:	68c3      	ldr	r3, [r0, #12]
 800453c:	68dc      	ldr	r4, [r3, #12]
 800453e:	b944      	cbnz	r4, 8004552 <xTaskRemoveFromEventList+0x1a>
 8004540:	f04f 0350 	mov.w	r3, #80	; 0x50
 8004544:	f383 8811 	msr	BASEPRI, r3
 8004548:	f3bf 8f6f 	isb	sy
 800454c:	f3bf 8f4f 	dsb	sy
 8004550:	e7fe      	b.n	8004550 <xTaskRemoveFromEventList+0x18>
 8004552:	f104 0518 	add.w	r5, r4, #24
 8004556:	4628      	mov	r0, r5
 8004558:	f7ff f923 	bl	80037a2 <uxListRemove>
 800455c:	4b10      	ldr	r3, [pc, #64]	; (80045a0 <xTaskRemoveFromEventList+0x68>)
 800455e:	681b      	ldr	r3, [r3, #0]
 8004560:	b9db      	cbnz	r3, 800459a <xTaskRemoveFromEventList+0x62>
 8004562:	1d25      	adds	r5, r4, #4
 8004564:	4628      	mov	r0, r5
 8004566:	f7ff f91c 	bl	80037a2 <uxListRemove>
 800456a:	4a0e      	ldr	r2, [pc, #56]	; (80045a4 <xTaskRemoveFromEventList+0x6c>)
 800456c:	2014      	movs	r0, #20
 800456e:	6811      	ldr	r1, [r2, #0]
 8004570:	6ae3      	ldr	r3, [r4, #44]	; 0x2c
 8004572:	428b      	cmp	r3, r1
 8004574:	4629      	mov	r1, r5
 8004576:	bf88      	it	hi
 8004578:	6013      	strhi	r3, [r2, #0]
 800457a:	4a0b      	ldr	r2, [pc, #44]	; (80045a8 <xTaskRemoveFromEventList+0x70>)
 800457c:	fb00 2003 	mla	r0, r0, r3, r2
 8004580:	f7ff f8ec 	bl	800375c <vListInsertEnd>
 8004584:	4b09      	ldr	r3, [pc, #36]	; (80045ac <xTaskRemoveFromEventList+0x74>)
 8004586:	6ae2      	ldr	r2, [r4, #44]	; 0x2c
 8004588:	681b      	ldr	r3, [r3, #0]
 800458a:	6adb      	ldr	r3, [r3, #44]	; 0x2c
 800458c:	429a      	cmp	r2, r3
 800458e:	bf85      	ittet	hi
 8004590:	2001      	movhi	r0, #1
 8004592:	4b07      	ldrhi	r3, [pc, #28]	; (80045b0 <xTaskRemoveFromEventList+0x78>)
 8004594:	2000      	movls	r0, #0
 8004596:	6018      	strhi	r0, [r3, #0]
 8004598:	bd38      	pop	{r3, r4, r5, pc}
 800459a:	4629      	mov	r1, r5
 800459c:	4805      	ldr	r0, [pc, #20]	; (80045b4 <xTaskRemoveFromEventList+0x7c>)
 800459e:	e7ef      	b.n	8004580 <xTaskRemoveFromEventList+0x48>
 80045a0:	20000bcc 	.word	0x20000bcc
 80045a4:	20000bd4 	.word	0x20000bd4
 80045a8:	20000760 	.word	0x20000760
 80045ac:	20000754 	.word	0x20000754
 80045b0:	20000c4c 	.word	0x20000c4c
 80045b4:	20000c08 	.word	0x20000c08

080045b8 <vTaskInternalSetTimeOutState>:
 80045b8:	4b03      	ldr	r3, [pc, #12]	; (80045c8 <vTaskInternalSetTimeOutState+0x10>)
 80045ba:	681b      	ldr	r3, [r3, #0]
 80045bc:	6003      	str	r3, [r0, #0]
 80045be:	4b03      	ldr	r3, [pc, #12]	; (80045cc <vTaskInternalSetTimeOutState+0x14>)
 80045c0:	681b      	ldr	r3, [r3, #0]
 80045c2:	6043      	str	r3, [r0, #4]
 80045c4:	4770      	bx	lr
 80045c6:	bf00      	nop
 80045c8:	20000c04 	.word	0x20000c04
 80045cc:	20000c48 	.word	0x20000c48

080045d0 <xTaskCheckForTimeOut>:
 80045d0:	b570      	push	{r4, r5, r6, lr}
 80045d2:	460c      	mov	r4, r1
 80045d4:	4605      	mov	r5, r0
 80045d6:	b940      	cbnz	r0, 80045ea <xTaskCheckForTimeOut+0x1a>
 80045d8:	f04f 0350 	mov.w	r3, #80	; 0x50
 80045dc:	f383 8811 	msr	BASEPRI, r3
 80045e0:	f3bf 8f6f 	isb	sy
 80045e4:	f3bf 8f4f 	dsb	sy
 80045e8:	e7fe      	b.n	80045e8 <xTaskCheckForTimeOut+0x18>
 80045ea:	b941      	cbnz	r1, 80045fe <xTaskCheckForTimeOut+0x2e>
 80045ec:	f04f 0350 	mov.w	r3, #80	; 0x50
 80045f0:	f383 8811 	msr	BASEPRI, r3
 80045f4:	f3bf 8f6f 	isb	sy
 80045f8:	f3bf 8f4f 	dsb	sy
 80045fc:	e7fe      	b.n	80045fc <xTaskCheckForTimeOut+0x2c>
 80045fe:	f000 fab9 	bl	8004b74 <vPortEnterCritical>
 8004602:	4b0f      	ldr	r3, [pc, #60]	; (8004640 <xTaskCheckForTimeOut+0x70>)
 8004604:	6819      	ldr	r1, [r3, #0]
 8004606:	6823      	ldr	r3, [r4, #0]
 8004608:	1c5a      	adds	r2, r3, #1
 800460a:	d010      	beq.n	800462e <xTaskCheckForTimeOut+0x5e>
 800460c:	480d      	ldr	r0, [pc, #52]	; (8004644 <xTaskCheckForTimeOut+0x74>)
 800460e:	682e      	ldr	r6, [r5, #0]
 8004610:	6800      	ldr	r0, [r0, #0]
 8004612:	686a      	ldr	r2, [r5, #4]
 8004614:	4286      	cmp	r6, r0
 8004616:	d001      	beq.n	800461c <xTaskCheckForTimeOut+0x4c>
 8004618:	428a      	cmp	r2, r1
 800461a:	d90f      	bls.n	800463c <xTaskCheckForTimeOut+0x6c>
 800461c:	1a88      	subs	r0, r1, r2
 800461e:	4283      	cmp	r3, r0
 8004620:	d90a      	bls.n	8004638 <xTaskCheckForTimeOut+0x68>
 8004622:	1a5b      	subs	r3, r3, r1
 8004624:	4413      	add	r3, r2
 8004626:	4628      	mov	r0, r5
 8004628:	6023      	str	r3, [r4, #0]
 800462a:	f7ff ffc5 	bl	80045b8 <vTaskInternalSetTimeOutState>
 800462e:	2400      	movs	r4, #0
 8004630:	f000 fac2 	bl	8004bb8 <vPortExitCritical>
 8004634:	4620      	mov	r0, r4
 8004636:	bd70      	pop	{r4, r5, r6, pc}
 8004638:	2300      	movs	r3, #0
 800463a:	6023      	str	r3, [r4, #0]
 800463c:	2401      	movs	r4, #1
 800463e:	e7f7      	b.n	8004630 <xTaskCheckForTimeOut+0x60>
 8004640:	20000c48 	.word	0x20000c48
 8004644:	20000c04 	.word	0x20000c04

08004648 <vTaskMissedYield>:
 8004648:	2201      	movs	r2, #1
 800464a:	4b01      	ldr	r3, [pc, #4]	; (8004650 <vTaskMissedYield+0x8>)
 800464c:	601a      	str	r2, [r3, #0]
 800464e:	4770      	bx	lr
 8004650:	20000c4c 	.word	0x20000c4c

08004654 <xTaskGetSchedulerState>:
 8004654:	4b05      	ldr	r3, [pc, #20]	; (800466c <xTaskGetSchedulerState+0x18>)
 8004656:	681b      	ldr	r3, [r3, #0]
 8004658:	b133      	cbz	r3, 8004668 <xTaskGetSchedulerState+0x14>
 800465a:	4b05      	ldr	r3, [pc, #20]	; (8004670 <xTaskGetSchedulerState+0x1c>)
 800465c:	681b      	ldr	r3, [r3, #0]
 800465e:	2b00      	cmp	r3, #0
 8004660:	bf0c      	ite	eq
 8004662:	2002      	moveq	r0, #2
 8004664:	2000      	movne	r0, #0
 8004666:	4770      	bx	lr
 8004668:	2001      	movs	r0, #1
 800466a:	4770      	bx	lr
 800466c:	20000c1c 	.word	0x20000c1c
 8004670:	20000bcc 	.word	0x20000bcc

08004674 <xTaskPriorityDisinherit>:
 8004674:	b538      	push	{r3, r4, r5, lr}
 8004676:	b908      	cbnz	r0, 800467c <xTaskPriorityDisinherit+0x8>
 8004678:	2000      	movs	r0, #0
 800467a:	bd38      	pop	{r3, r4, r5, pc}
 800467c:	4b1b      	ldr	r3, [pc, #108]	; (80046ec <xTaskPriorityDisinherit+0x78>)
 800467e:	681c      	ldr	r4, [r3, #0]
 8004680:	4284      	cmp	r4, r0
 8004682:	d008      	beq.n	8004696 <xTaskPriorityDisinherit+0x22>
 8004684:	f04f 0350 	mov.w	r3, #80	; 0x50
 8004688:	f383 8811 	msr	BASEPRI, r3
 800468c:	f3bf 8f6f 	isb	sy
 8004690:	f3bf 8f4f 	dsb	sy
 8004694:	e7fe      	b.n	8004694 <xTaskPriorityDisinherit+0x20>
 8004696:	6d23      	ldr	r3, [r4, #80]	; 0x50
 8004698:	b943      	cbnz	r3, 80046ac <xTaskPriorityDisinherit+0x38>
 800469a:	f04f 0350 	mov.w	r3, #80	; 0x50
 800469e:	f383 8811 	msr	BASEPRI, r3
 80046a2:	f3bf 8f6f 	isb	sy
 80046a6:	f3bf 8f4f 	dsb	sy
 80046aa:	e7fe      	b.n	80046aa <xTaskPriorityDisinherit+0x36>
 80046ac:	6ae1      	ldr	r1, [r4, #44]	; 0x2c
 80046ae:	6ce2      	ldr	r2, [r4, #76]	; 0x4c
 80046b0:	3b01      	subs	r3, #1
 80046b2:	4291      	cmp	r1, r2
 80046b4:	6523      	str	r3, [r4, #80]	; 0x50
 80046b6:	d0df      	beq.n	8004678 <xTaskPriorityDisinherit+0x4>
 80046b8:	2b00      	cmp	r3, #0
 80046ba:	d1dd      	bne.n	8004678 <xTaskPriorityDisinherit+0x4>
 80046bc:	1d25      	adds	r5, r4, #4
 80046be:	4628      	mov	r0, r5
 80046c0:	f7ff f86f 	bl	80037a2 <uxListRemove>
 80046c4:	2014      	movs	r0, #20
 80046c6:	6ce3      	ldr	r3, [r4, #76]	; 0x4c
 80046c8:	f1c3 0238 	rsb	r2, r3, #56	; 0x38
 80046cc:	61a2      	str	r2, [r4, #24]
 80046ce:	4a08      	ldr	r2, [pc, #32]	; (80046f0 <xTaskPriorityDisinherit+0x7c>)
 80046d0:	62e3      	str	r3, [r4, #44]	; 0x2c
 80046d2:	6811      	ldr	r1, [r2, #0]
 80046d4:	428b      	cmp	r3, r1
 80046d6:	bf88      	it	hi
 80046d8:	6013      	strhi	r3, [r2, #0]
 80046da:	4a06      	ldr	r2, [pc, #24]	; (80046f4 <xTaskPriorityDisinherit+0x80>)
 80046dc:	4629      	mov	r1, r5
 80046de:	fb00 2003 	mla	r0, r0, r3, r2
 80046e2:	f7ff f83b 	bl	800375c <vListInsertEnd>
 80046e6:	2001      	movs	r0, #1
 80046e8:	e7c7      	b.n	800467a <xTaskPriorityDisinherit+0x6>
 80046ea:	bf00      	nop
 80046ec:	20000754 	.word	0x20000754
 80046f0:	20000bd4 	.word	0x20000bd4
 80046f4:	20000760 	.word	0x20000760

080046f8 <prvCheckForValidListAndQueue>:
 80046f8:	b5f7      	push	{r0, r1, r2, r4, r5, r6, r7, lr}
 80046fa:	4c11      	ldr	r4, [pc, #68]	; (8004740 <prvCheckForValidListAndQueue+0x48>)
 80046fc:	f000 fa3a 	bl	8004b74 <vPortEnterCritical>
 8004700:	6825      	ldr	r5, [r4, #0]
 8004702:	b9bd      	cbnz	r5, 8004734 <prvCheckForValidListAndQueue+0x3c>
 8004704:	4f0f      	ldr	r7, [pc, #60]	; (8004744 <prvCheckForValidListAndQueue+0x4c>)
 8004706:	4e10      	ldr	r6, [pc, #64]	; (8004748 <prvCheckForValidListAndQueue+0x50>)
 8004708:	4638      	mov	r0, r7
 800470a:	f7ff f819 	bl	8003740 <vListInitialise>
 800470e:	4630      	mov	r0, r6
 8004710:	f7ff f816 	bl	8003740 <vListInitialise>
 8004714:	4b0d      	ldr	r3, [pc, #52]	; (800474c <prvCheckForValidListAndQueue+0x54>)
 8004716:	2110      	movs	r1, #16
 8004718:	601f      	str	r7, [r3, #0]
 800471a:	4b0d      	ldr	r3, [pc, #52]	; (8004750 <prvCheckForValidListAndQueue+0x58>)
 800471c:	200a      	movs	r0, #10
 800471e:	601e      	str	r6, [r3, #0]
 8004720:	4a0c      	ldr	r2, [pc, #48]	; (8004754 <prvCheckForValidListAndQueue+0x5c>)
 8004722:	4b0d      	ldr	r3, [pc, #52]	; (8004758 <prvCheckForValidListAndQueue+0x60>)
 8004724:	9500      	str	r5, [sp, #0]
 8004726:	f7ff f919 	bl	800395c <xQueueGenericCreateStatic>
 800472a:	6020      	str	r0, [r4, #0]
 800472c:	b110      	cbz	r0, 8004734 <prvCheckForValidListAndQueue+0x3c>
 800472e:	490b      	ldr	r1, [pc, #44]	; (800475c <prvCheckForValidListAndQueue+0x64>)
 8004730:	f7ff fb16 	bl	8003d60 <vQueueAddToRegistry>
 8004734:	b003      	add	sp, #12
 8004736:	e8bd 40f0 	ldmia.w	sp!, {r4, r5, r6, r7, lr}
 800473a:	f000 ba3d 	b.w	8004bb8 <vPortExitCritical>
 800473e:	bf00      	nop
 8004740:	20000d74 	.word	0x20000d74
 8004744:	20000cf8 	.word	0x20000cf8
 8004748:	20000d0c 	.word	0x20000d0c
 800474c:	20000c50 	.word	0x20000c50
 8004750:	20000c54 	.word	0x20000c54
 8004754:	20000c58 	.word	0x20000c58
 8004758:	20000d24 	.word	0x20000d24
 800475c:	08006516 	.word	0x08006516

08004760 <prvInsertTimerInActiveList>:
 8004760:	4291      	cmp	r1, r2
 8004762:	b508      	push	{r3, lr}
 8004764:	6041      	str	r1, [r0, #4]
 8004766:	6100      	str	r0, [r0, #16]
 8004768:	d80a      	bhi.n	8004780 <prvInsertTimerInActiveList+0x20>
 800476a:	1ad2      	subs	r2, r2, r3
 800476c:	6983      	ldr	r3, [r0, #24]
 800476e:	429a      	cmp	r2, r3
 8004770:	d20d      	bcs.n	800478e <prvInsertTimerInActiveList+0x2e>
 8004772:	4b08      	ldr	r3, [pc, #32]	; (8004794 <prvInsertTimerInActiveList+0x34>)
 8004774:	1d01      	adds	r1, r0, #4
 8004776:	6818      	ldr	r0, [r3, #0]
 8004778:	f7fe fffc 	bl	8003774 <vListInsert>
 800477c:	2000      	movs	r0, #0
 800477e:	bd08      	pop	{r3, pc}
 8004780:	429a      	cmp	r2, r3
 8004782:	d201      	bcs.n	8004788 <prvInsertTimerInActiveList+0x28>
 8004784:	4299      	cmp	r1, r3
 8004786:	d202      	bcs.n	800478e <prvInsertTimerInActiveList+0x2e>
 8004788:	4b03      	ldr	r3, [pc, #12]	; (8004798 <prvInsertTimerInActiveList+0x38>)
 800478a:	1d01      	adds	r1, r0, #4
 800478c:	e7f3      	b.n	8004776 <prvInsertTimerInActiveList+0x16>
 800478e:	2001      	movs	r0, #1
 8004790:	e7f5      	b.n	800477e <prvInsertTimerInActiveList+0x1e>
 8004792:	bf00      	nop
 8004794:	20000c54 	.word	0x20000c54
 8004798:	20000c50 	.word	0x20000c50

0800479c <xTimerCreateTimerTask>:
 800479c:	b510      	push	{r4, lr}
 800479e:	b088      	sub	sp, #32
 80047a0:	f7ff ffaa 	bl	80046f8 <prvCheckForValidListAndQueue>
 80047a4:	4b12      	ldr	r3, [pc, #72]	; (80047f0 <xTimerCreateTimerTask+0x54>)
 80047a6:	681b      	ldr	r3, [r3, #0]
 80047a8:	b1b3      	cbz	r3, 80047d8 <xTimerCreateTimerTask+0x3c>
 80047aa:	2400      	movs	r4, #0
 80047ac:	aa07      	add	r2, sp, #28
 80047ae:	a906      	add	r1, sp, #24
 80047b0:	a805      	add	r0, sp, #20
 80047b2:	e9cd 4405 	strd	r4, r4, [sp, #20]
 80047b6:	f7fe ffb7 	bl	8003728 <vApplicationGetTimerTaskMemory>
 80047ba:	9b05      	ldr	r3, [sp, #20]
 80047bc:	9a07      	ldr	r2, [sp, #28]
 80047be:	9302      	str	r3, [sp, #8]
 80047c0:	9b06      	ldr	r3, [sp, #24]
 80047c2:	490c      	ldr	r1, [pc, #48]	; (80047f4 <xTimerCreateTimerTask+0x58>)
 80047c4:	9301      	str	r3, [sp, #4]
 80047c6:	2302      	movs	r3, #2
 80047c8:	480b      	ldr	r0, [pc, #44]	; (80047f8 <xTimerCreateTimerTask+0x5c>)
 80047ca:	9300      	str	r3, [sp, #0]
 80047cc:	4623      	mov	r3, r4
 80047ce:	f7ff fc5f 	bl	8004090 <xTaskCreateStatic>
 80047d2:	4b0a      	ldr	r3, [pc, #40]	; (80047fc <xTimerCreateTimerTask+0x60>)
 80047d4:	6018      	str	r0, [r3, #0]
 80047d6:	b940      	cbnz	r0, 80047ea <xTimerCreateTimerTask+0x4e>
 80047d8:	f04f 0350 	mov.w	r3, #80	; 0x50
 80047dc:	f383 8811 	msr	BASEPRI, r3
 80047e0:	f3bf 8f6f 	isb	sy
 80047e4:	f3bf 8f4f 	dsb	sy
 80047e8:	e7fe      	b.n	80047e8 <xTimerCreateTimerTask+0x4c>
 80047ea:	2001      	movs	r0, #1
 80047ec:	b008      	add	sp, #32
 80047ee:	bd10      	pop	{r4, pc}
 80047f0:	20000d74 	.word	0x20000d74
 80047f4:	0800651b 	.word	0x0800651b
 80047f8:	080048d5 	.word	0x080048d5
 80047fc:	20000d78 	.word	0x20000d78

08004800 <xTimerGenericCommand>:
 8004800:	b57f      	push	{r0, r1, r2, r3, r4, r5, r6, lr}
 8004802:	4616      	mov	r6, r2
 8004804:	4604      	mov	r4, r0
 8004806:	461a      	mov	r2, r3
 8004808:	b940      	cbnz	r0, 800481c <xTimerGenericCommand+0x1c>
 800480a:	f04f 0350 	mov.w	r3, #80	; 0x50
 800480e:	f383 8811 	msr	BASEPRI, r3
 8004812:	f3bf 8f6f 	isb	sy
 8004816:	f3bf 8f4f 	dsb	sy
 800481a:	e7fe      	b.n	800481a <xTimerGenericCommand+0x1a>
 800481c:	4d0d      	ldr	r5, [pc, #52]	; (8004854 <xTimerGenericCommand+0x54>)
 800481e:	6828      	ldr	r0, [r5, #0]
 8004820:	b180      	cbz	r0, 8004844 <xTimerGenericCommand+0x44>
 8004822:	2905      	cmp	r1, #5
 8004824:	e9cd 1600 	strd	r1, r6, [sp]
 8004828:	9402      	str	r4, [sp, #8]
 800482a:	dc0d      	bgt.n	8004848 <xTimerGenericCommand+0x48>
 800482c:	f7ff ff12 	bl	8004654 <xTaskGetSchedulerState>
 8004830:	2300      	movs	r3, #0
 8004832:	2802      	cmp	r0, #2
 8004834:	bf18      	it	ne
 8004836:	461a      	movne	r2, r3
 8004838:	4669      	mov	r1, sp
 800483a:	bf08      	it	eq
 800483c:	9a08      	ldreq	r2, [sp, #32]
 800483e:	6828      	ldr	r0, [r5, #0]
 8004840:	f7ff f8da 	bl	80039f8 <xQueueGenericSend>
 8004844:	b004      	add	sp, #16
 8004846:	bd70      	pop	{r4, r5, r6, pc}
 8004848:	2300      	movs	r3, #0
 800484a:	4669      	mov	r1, sp
 800484c:	f7ff f986 	bl	8003b5c <xQueueGenericSendFromISR>
 8004850:	e7f8      	b.n	8004844 <xTimerGenericCommand+0x44>
 8004852:	bf00      	nop
 8004854:	20000d74 	.word	0x20000d74

08004858 <prvSwitchTimerLists>:
 8004858:	e92d 41f3 	stmdb	sp!, {r0, r1, r4, r5, r6, r7, r8, lr}
 800485c:	f04f 0800 	mov.w	r8, #0
 8004860:	4d1a      	ldr	r5, [pc, #104]	; (80048cc <prvSwitchTimerLists+0x74>)
 8004862:	682b      	ldr	r3, [r5, #0]
 8004864:	681a      	ldr	r2, [r3, #0]
 8004866:	b932      	cbnz	r2, 8004876 <prvSwitchTimerLists+0x1e>
 8004868:	4a19      	ldr	r2, [pc, #100]	; (80048d0 <prvSwitchTimerLists+0x78>)
 800486a:	6811      	ldr	r1, [r2, #0]
 800486c:	6013      	str	r3, [r2, #0]
 800486e:	6029      	str	r1, [r5, #0]
 8004870:	b002      	add	sp, #8
 8004872:	e8bd 81f0 	ldmia.w	sp!, {r4, r5, r6, r7, r8, pc}
 8004876:	68db      	ldr	r3, [r3, #12]
 8004878:	68dc      	ldr	r4, [r3, #12]
 800487a:	681e      	ldr	r6, [r3, #0]
 800487c:	1d27      	adds	r7, r4, #4
 800487e:	4638      	mov	r0, r7
 8004880:	f7fe ff8f 	bl	80037a2 <uxListRemove>
 8004884:	6a63      	ldr	r3, [r4, #36]	; 0x24
 8004886:	4620      	mov	r0, r4
 8004888:	4798      	blx	r3
 800488a:	69e3      	ldr	r3, [r4, #28]
 800488c:	2b01      	cmp	r3, #1
 800488e:	d1e8      	bne.n	8004862 <prvSwitchTimerLists+0xa>
 8004890:	69a3      	ldr	r3, [r4, #24]
 8004892:	4433      	add	r3, r6
 8004894:	429e      	cmp	r6, r3
 8004896:	d206      	bcs.n	80048a6 <prvSwitchTimerLists+0x4e>
 8004898:	4639      	mov	r1, r7
 800489a:	6828      	ldr	r0, [r5, #0]
 800489c:	6063      	str	r3, [r4, #4]
 800489e:	6124      	str	r4, [r4, #16]
 80048a0:	f7fe ff68 	bl	8003774 <vListInsert>
 80048a4:	e7dd      	b.n	8004862 <prvSwitchTimerLists+0xa>
 80048a6:	2300      	movs	r3, #0
 80048a8:	4632      	mov	r2, r6
 80048aa:	4619      	mov	r1, r3
 80048ac:	4620      	mov	r0, r4
 80048ae:	f8cd 8000 	str.w	r8, [sp]
 80048b2:	f7ff ffa5 	bl	8004800 <xTimerGenericCommand>
 80048b6:	2800      	cmp	r0, #0
 80048b8:	d1d3      	bne.n	8004862 <prvSwitchTimerLists+0xa>
 80048ba:	f04f 0350 	mov.w	r3, #80	; 0x50
 80048be:	f383 8811 	msr	BASEPRI, r3
 80048c2:	f3bf 8f6f 	isb	sy
 80048c6:	f3bf 8f4f 	dsb	sy
 80048ca:	e7fe      	b.n	80048ca <prvSwitchTimerLists+0x72>
 80048cc:	20000c50 	.word	0x20000c50
 80048d0:	20000c54 	.word	0x20000c54

080048d4 <prvTimerTask>:
 80048d4:	e92d 4ff0 	stmdb	sp!, {r4, r5, r6, r7, r8, r9, sl, fp, lr}
 80048d8:	4e77      	ldr	r6, [pc, #476]	; (8004ab8 <prvTimerTask+0x1e4>)
 80048da:	f8df 91ec 	ldr.w	r9, [pc, #492]	; 8004ac8 <prvTimerTask+0x1f4>
 80048de:	46b0      	mov	r8, r6
 80048e0:	b087      	sub	sp, #28
 80048e2:	6833      	ldr	r3, [r6, #0]
 80048e4:	f8d3 b000 	ldr.w	fp, [r3]
 80048e8:	f1bb 0f00 	cmp.w	fp, #0
 80048ec:	d048      	beq.n	8004980 <prvTimerTask+0xac>
 80048ee:	68db      	ldr	r3, [r3, #12]
 80048f0:	f8d3 a000 	ldr.w	sl, [r3]
 80048f4:	f7ff fc74 	bl	80041e0 <vTaskSuspendAll>
 80048f8:	f7ff fc7a 	bl	80041f0 <xTaskGetTickCount>
 80048fc:	4d6f      	ldr	r5, [pc, #444]	; (8004abc <prvTimerTask+0x1e8>)
 80048fe:	4604      	mov	r4, r0
 8004900:	682b      	ldr	r3, [r5, #0]
 8004902:	462f      	mov	r7, r5
 8004904:	4298      	cmp	r0, r3
 8004906:	d23d      	bcs.n	8004984 <prvTimerTask+0xb0>
 8004908:	f7ff ffa6 	bl	8004858 <prvSwitchTimerLists>
 800490c:	602c      	str	r4, [r5, #0]
 800490e:	f7ff fd05 	bl	800431c <xTaskResumeAll>
 8004912:	f04f 0b00 	mov.w	fp, #0
 8004916:	f8df a1ac 	ldr.w	sl, [pc, #428]	; 8004ac4 <prvTimerTask+0x1f0>
 800491a:	2200      	movs	r2, #0
 800491c:	f8da 0000 	ldr.w	r0, [sl]
 8004920:	a902      	add	r1, sp, #8
 8004922:	f7ff f97d 	bl	8003c20 <xQueueReceive>
 8004926:	2800      	cmp	r0, #0
 8004928:	d0db      	beq.n	80048e2 <prvTimerTask+0xe>
 800492a:	9b02      	ldr	r3, [sp, #8]
 800492c:	9804      	ldr	r0, [sp, #16]
 800492e:	2b00      	cmp	r3, #0
 8004930:	db72      	blt.n	8004a18 <prvTimerTask+0x144>
 8004932:	9c04      	ldr	r4, [sp, #16]
 8004934:	6963      	ldr	r3, [r4, #20]
 8004936:	2b00      	cmp	r3, #0
 8004938:	d176      	bne.n	8004a28 <prvTimerTask+0x154>
 800493a:	f7ff fc59 	bl	80041f0 <xTaskGetTickCount>
 800493e:	683b      	ldr	r3, [r7, #0]
 8004940:	4605      	mov	r5, r0
 8004942:	4298      	cmp	r0, r3
 8004944:	d201      	bcs.n	800494a <prvTimerTask+0x76>
 8004946:	f7ff ff87 	bl	8004858 <prvSwitchTimerLists>
 800494a:	9b02      	ldr	r3, [sp, #8]
 800494c:	603d      	str	r5, [r7, #0]
 800494e:	2b09      	cmp	r3, #9
 8004950:	d8e3      	bhi.n	800491a <prvTimerTask+0x46>
 8004952:	a201      	add	r2, pc, #4	; (adr r2, 8004958 <prvTimerTask+0x84>)
 8004954:	f852 f023 	ldr.w	pc, [r2, r3, lsl #2]
 8004958:	08004a31 	.word	0x08004a31
 800495c:	08004a31 	.word	0x08004a31
 8004960:	08004a31 	.word	0x08004a31
 8004964:	0800491b 	.word	0x0800491b
 8004968:	08004a7f 	.word	0x08004a7f
 800496c:	08004aa5 	.word	0x08004aa5
 8004970:	08004a31 	.word	0x08004a31
 8004974:	08004a31 	.word	0x08004a31
 8004978:	0800491b 	.word	0x0800491b
 800497c:	08004a7f 	.word	0x08004a7f
 8004980:	46da      	mov	sl, fp
 8004982:	e7b7      	b.n	80048f4 <prvTimerTask+0x20>
 8004984:	6028      	str	r0, [r5, #0]
 8004986:	f1bb 0f00 	cmp.w	fp, #0
 800498a:	d02a      	beq.n	80049e2 <prvTimerTask+0x10e>
 800498c:	4582      	cmp	sl, r0
 800498e:	d841      	bhi.n	8004a14 <prvTimerTask+0x140>
 8004990:	f7ff fcc4 	bl	800431c <xTaskResumeAll>
 8004994:	f8d8 3000 	ldr.w	r3, [r8]
 8004998:	68db      	ldr	r3, [r3, #12]
 800499a:	68dd      	ldr	r5, [r3, #12]
 800499c:	1d28      	adds	r0, r5, #4
 800499e:	f7fe ff00 	bl	80037a2 <uxListRemove>
 80049a2:	69eb      	ldr	r3, [r5, #28]
 80049a4:	2b01      	cmp	r3, #1
 80049a6:	d118      	bne.n	80049da <prvTimerTask+0x106>
 80049a8:	69a9      	ldr	r1, [r5, #24]
 80049aa:	4653      	mov	r3, sl
 80049ac:	4622      	mov	r2, r4
 80049ae:	4628      	mov	r0, r5
 80049b0:	4451      	add	r1, sl
 80049b2:	f7ff fed5 	bl	8004760 <prvInsertTimerInActiveList>
 80049b6:	b180      	cbz	r0, 80049da <prvTimerTask+0x106>
 80049b8:	2300      	movs	r3, #0
 80049ba:	4652      	mov	r2, sl
 80049bc:	4619      	mov	r1, r3
 80049be:	4628      	mov	r0, r5
 80049c0:	9300      	str	r3, [sp, #0]
 80049c2:	f7ff ff1d 	bl	8004800 <xTimerGenericCommand>
 80049c6:	b940      	cbnz	r0, 80049da <prvTimerTask+0x106>
 80049c8:	f04f 0350 	mov.w	r3, #80	; 0x50
 80049cc:	f383 8811 	msr	BASEPRI, r3
 80049d0:	f3bf 8f6f 	isb	sy
 80049d4:	f3bf 8f4f 	dsb	sy
 80049d8:	e7fe      	b.n	80049d8 <prvTimerTask+0x104>
 80049da:	4628      	mov	r0, r5
 80049dc:	6a6b      	ldr	r3, [r5, #36]	; 0x24
 80049de:	4798      	blx	r3
 80049e0:	e797      	b.n	8004912 <prvTimerTask+0x3e>
 80049e2:	4b37      	ldr	r3, [pc, #220]	; (8004ac0 <prvTimerTask+0x1ec>)
 80049e4:	681b      	ldr	r3, [r3, #0]
 80049e6:	681a      	ldr	r2, [r3, #0]
 80049e8:	fab2 f282 	clz	r2, r2
 80049ec:	0952      	lsrs	r2, r2, #5
 80049ee:	4b35      	ldr	r3, [pc, #212]	; (8004ac4 <prvTimerTask+0x1f0>)
 80049f0:	ebaa 0104 	sub.w	r1, sl, r4
 80049f4:	6818      	ldr	r0, [r3, #0]
 80049f6:	f7ff f9c5 	bl	8003d84 <vQueueWaitForMessageRestricted>
 80049fa:	f7ff fc8f 	bl	800431c <xTaskResumeAll>
 80049fe:	2800      	cmp	r0, #0
 8004a00:	d187      	bne.n	8004912 <prvTimerTask+0x3e>
 8004a02:	f04f 5380 	mov.w	r3, #268435456	; 0x10000000
 8004a06:	f8c9 3000 	str.w	r3, [r9]
 8004a0a:	f3bf 8f4f 	dsb	sy
 8004a0e:	f3bf 8f6f 	isb	sy
 8004a12:	e77e      	b.n	8004912 <prvTimerTask+0x3e>
 8004a14:	2200      	movs	r2, #0
 8004a16:	e7ea      	b.n	80049ee <prvTimerTask+0x11a>
 8004a18:	9b03      	ldr	r3, [sp, #12]
 8004a1a:	9905      	ldr	r1, [sp, #20]
 8004a1c:	4798      	blx	r3
 8004a1e:	9b02      	ldr	r3, [sp, #8]
 8004a20:	2b00      	cmp	r3, #0
 8004a22:	f6ff af7a 	blt.w	800491a <prvTimerTask+0x46>
 8004a26:	e784      	b.n	8004932 <prvTimerTask+0x5e>
 8004a28:	1d20      	adds	r0, r4, #4
 8004a2a:	f7fe feba 	bl	80037a2 <uxListRemove>
 8004a2e:	e784      	b.n	800493a <prvTimerTask+0x66>
 8004a30:	69a1      	ldr	r1, [r4, #24]
 8004a32:	9b03      	ldr	r3, [sp, #12]
 8004a34:	462a      	mov	r2, r5
 8004a36:	4620      	mov	r0, r4
 8004a38:	4419      	add	r1, r3
 8004a3a:	f7ff fe91 	bl	8004760 <prvInsertTimerInActiveList>
 8004a3e:	2800      	cmp	r0, #0
 8004a40:	f43f af6b 	beq.w	800491a <prvTimerTask+0x46>
 8004a44:	6a63      	ldr	r3, [r4, #36]	; 0x24
 8004a46:	4620      	mov	r0, r4
 8004a48:	4798      	blx	r3
 8004a4a:	69e3      	ldr	r3, [r4, #28]
 8004a4c:	2b01      	cmp	r3, #1
 8004a4e:	f47f af64 	bne.w	800491a <prvTimerTask+0x46>
 8004a52:	2300      	movs	r3, #0
 8004a54:	69a2      	ldr	r2, [r4, #24]
 8004a56:	9903      	ldr	r1, [sp, #12]
 8004a58:	4620      	mov	r0, r4
 8004a5a:	440a      	add	r2, r1
 8004a5c:	f8cd b000 	str.w	fp, [sp]
 8004a60:	4619      	mov	r1, r3
 8004a62:	f7ff fecd 	bl	8004800 <xTimerGenericCommand>
 8004a66:	2800      	cmp	r0, #0
 8004a68:	f47f af57 	bne.w	800491a <prvTimerTask+0x46>
 8004a6c:	f04f 0350 	mov.w	r3, #80	; 0x50
 8004a70:	f383 8811 	msr	BASEPRI, r3
 8004a74:	f3bf 8f6f 	isb	sy
 8004a78:	f3bf 8f4f 	dsb	sy
 8004a7c:	e7fe      	b.n	8004a7c <prvTimerTask+0x1a8>
 8004a7e:	9903      	ldr	r1, [sp, #12]
 8004a80:	61a1      	str	r1, [r4, #24]
 8004a82:	b941      	cbnz	r1, 8004a96 <prvTimerTask+0x1c2>
 8004a84:	f04f 0350 	mov.w	r3, #80	; 0x50
 8004a88:	f383 8811 	msr	BASEPRI, r3
 8004a8c:	f3bf 8f6f 	isb	sy
 8004a90:	f3bf 8f4f 	dsb	sy
 8004a94:	e7fe      	b.n	8004a94 <prvTimerTask+0x1c0>
 8004a96:	462b      	mov	r3, r5
 8004a98:	462a      	mov	r2, r5
 8004a9a:	4620      	mov	r0, r4
 8004a9c:	4429      	add	r1, r5
 8004a9e:	f7ff fe5f 	bl	8004760 <prvInsertTimerInActiveList>
 8004aa2:	e73a      	b.n	800491a <prvTimerTask+0x46>
 8004aa4:	f894 302c 	ldrb.w	r3, [r4, #44]	; 0x2c
 8004aa8:	2b00      	cmp	r3, #0
 8004aaa:	f47f af36 	bne.w	800491a <prvTimerTask+0x46>
 8004aae:	4620      	mov	r0, r4
 8004ab0:	f000 fa1c 	bl	8004eec <vPortFree>
 8004ab4:	e731      	b.n	800491a <prvTimerTask+0x46>
 8004ab6:	bf00      	nop
 8004ab8:	20000c50 	.word	0x20000c50
 8004abc:	20000d20 	.word	0x20000d20
 8004ac0:	20000c54 	.word	0x20000c54
 8004ac4:	20000d74 	.word	0x20000d74
 8004ac8:	e000ed04 	.word	0xe000ed04

08004acc <prvPortStartFirstTask>:
 8004acc:	4806      	ldr	r0, [pc, #24]	; (8004ae8 <prvPortStartFirstTask+0x1c>)
 8004ace:	6800      	ldr	r0, [r0, #0]
 8004ad0:	6800      	ldr	r0, [r0, #0]
 8004ad2:	f380 8808 	msr	MSP, r0
 8004ad6:	b662      	cpsie	i
 8004ad8:	b661      	cpsie	f
 8004ada:	f3bf 8f4f 	dsb	sy
 8004ade:	f3bf 8f6f 	isb	sy
 8004ae2:	df00      	svc	0
 8004ae4:	bf00      	nop
 8004ae6:	0000      	.short	0x0000
 8004ae8:	e000ed08 	.word	0xe000ed08

08004aec <prvTaskExitError>:
 8004aec:	2300      	movs	r3, #0
 8004aee:	b082      	sub	sp, #8
 8004af0:	9301      	str	r3, [sp, #4]
 8004af2:	4b0d      	ldr	r3, [pc, #52]	; (8004b28 <prvTaskExitError+0x3c>)
 8004af4:	681b      	ldr	r3, [r3, #0]
 8004af6:	3301      	adds	r3, #1
 8004af8:	d008      	beq.n	8004b0c <prvTaskExitError+0x20>
 8004afa:	f04f 0350 	mov.w	r3, #80	; 0x50
 8004afe:	f383 8811 	msr	BASEPRI, r3
 8004b02:	f3bf 8f6f 	isb	sy
 8004b06:	f3bf 8f4f 	dsb	sy
 8004b0a:	e7fe      	b.n	8004b0a <prvTaskExitError+0x1e>
 8004b0c:	f04f 0350 	mov.w	r3, #80	; 0x50
 8004b10:	f383 8811 	msr	BASEPRI, r3
 8004b14:	f3bf 8f6f 	isb	sy
 8004b18:	f3bf 8f4f 	dsb	sy
 8004b1c:	9b01      	ldr	r3, [sp, #4]
 8004b1e:	2b00      	cmp	r3, #0
 8004b20:	d0fc      	beq.n	8004b1c <prvTaskExitError+0x30>
 8004b22:	b002      	add	sp, #8
 8004b24:	4770      	bx	lr
 8004b26:	bf00      	nop
 8004b28:	2000000c 	.word	0x2000000c

08004b2c <pxPortInitialiseStack>:
 8004b2c:	f04f 7380 	mov.w	r3, #16777216	; 0x1000000
 8004b30:	f840 3c04 	str.w	r3, [r0, #-4]
 8004b34:	4b05      	ldr	r3, [pc, #20]	; (8004b4c <pxPortInitialiseStack+0x20>)
 8004b36:	f021 0101 	bic.w	r1, r1, #1
 8004b3a:	f840 1c08 	str.w	r1, [r0, #-8]
 8004b3e:	f840 3c0c 	str.w	r3, [r0, #-12]
 8004b42:	f840 2c20 	str.w	r2, [r0, #-32]
 8004b46:	3840      	subs	r0, #64	; 0x40
 8004b48:	4770      	bx	lr
 8004b4a:	bf00      	nop
 8004b4c:	08004aed 	.word	0x08004aed

08004b50 <SVC_Handler>:
 8004b50:	4b07      	ldr	r3, [pc, #28]	; (8004b70 <pxCurrentTCBConst2>)
 8004b52:	6819      	ldr	r1, [r3, #0]
 8004b54:	6808      	ldr	r0, [r1, #0]
 8004b56:	e8b0 0ff0 	ldmia.w	r0!, {r4, r5, r6, r7, r8, r9, sl, fp}
 8004b5a:	f380 8809 	msr	PSP, r0
 8004b5e:	f3bf 8f6f 	isb	sy
 8004b62:	f04f 0000 	mov.w	r0, #0
 8004b66:	f380 8811 	msr	BASEPRI, r0
 8004b6a:	f04e 0e0d 	orr.w	lr, lr, #13
 8004b6e:	4770      	bx	lr

08004b70 <pxCurrentTCBConst2>:
 8004b70:	20000754 	.word	0x20000754

08004b74 <vPortEnterCritical>:
 8004b74:	f04f 0350 	mov.w	r3, #80	; 0x50
 8004b78:	f383 8811 	msr	BASEPRI, r3
 8004b7c:	f3bf 8f6f 	isb	sy
 8004b80:	f3bf 8f4f 	dsb	sy
 8004b84:	4a0a      	ldr	r2, [pc, #40]	; (8004bb0 <vPortEnterCritical+0x3c>)
 8004b86:	6813      	ldr	r3, [r2, #0]
 8004b88:	3301      	adds	r3, #1
 8004b8a:	2b01      	cmp	r3, #1
 8004b8c:	6013      	str	r3, [r2, #0]
 8004b8e:	d10d      	bne.n	8004bac <vPortEnterCritical+0x38>
 8004b90:	4b08      	ldr	r3, [pc, #32]	; (8004bb4 <vPortEnterCritical+0x40>)
 8004b92:	681b      	ldr	r3, [r3, #0]
 8004b94:	f013 0fff 	tst.w	r3, #255	; 0xff
 8004b98:	d008      	beq.n	8004bac <vPortEnterCritical+0x38>
 8004b9a:	f04f 0350 	mov.w	r3, #80	; 0x50
 8004b9e:	f383 8811 	msr	BASEPRI, r3
 8004ba2:	f3bf 8f6f 	isb	sy
 8004ba6:	f3bf 8f4f 	dsb	sy
 8004baa:	e7fe      	b.n	8004baa <vPortEnterCritical+0x36>
 8004bac:	4770      	bx	lr
 8004bae:	bf00      	nop
 8004bb0:	2000000c 	.word	0x2000000c
 8004bb4:	e000ed04 	.word	0xe000ed04

08004bb8 <vPortExitCritical>:
 8004bb8:	4a08      	ldr	r2, [pc, #32]	; (8004bdc <vPortExitCritical+0x24>)
 8004bba:	6813      	ldr	r3, [r2, #0]
 8004bbc:	b943      	cbnz	r3, 8004bd0 <vPortExitCritical+0x18>
 8004bbe:	f04f 0350 	mov.w	r3, #80	; 0x50
 8004bc2:	f383 8811 	msr	BASEPRI, r3
 8004bc6:	f3bf 8f6f 	isb	sy
 8004bca:	f3bf 8f4f 	dsb	sy
 8004bce:	e7fe      	b.n	8004bce <vPortExitCritical+0x16>
 8004bd0:	3b01      	subs	r3, #1
 8004bd2:	6013      	str	r3, [r2, #0]
 8004bd4:	b90b      	cbnz	r3, 8004bda <vPortExitCritical+0x22>
 8004bd6:	f383 8811 	msr	BASEPRI, r3
 8004bda:	4770      	bx	lr
 8004bdc:	2000000c 	.word	0x2000000c

08004be0 <PendSV_Handler>:
 8004be0:	f3ef 8009 	mrs	r0, PSP
 8004be4:	f3bf 8f6f 	isb	sy
 8004be8:	4b0d      	ldr	r3, [pc, #52]	; (8004c20 <pxCurrentTCBConst>)
 8004bea:	681a      	ldr	r2, [r3, #0]
 8004bec:	e920 0ff0 	stmdb	r0!, {r4, r5, r6, r7, r8, r9, sl, fp}
 8004bf0:	6010      	str	r0, [r2, #0]
 8004bf2:	e92d 4008 	stmdb	sp!, {r3, lr}
 8004bf6:	f04f 0050 	mov.w	r0, #80	; 0x50
 8004bfa:	f380 8811 	msr	BASEPRI, r0
 8004bfe:	f7ff fc25 	bl	800444c <vTaskSwitchContext>
 8004c02:	f04f 0000 	mov.w	r0, #0
 8004c06:	f380 8811 	msr	BASEPRI, r0
 8004c0a:	e8bd 4008 	ldmia.w	sp!, {r3, lr}
 8004c0e:	6819      	ldr	r1, [r3, #0]
 8004c10:	6808      	ldr	r0, [r1, #0]
 8004c12:	e8b0 0ff0 	ldmia.w	r0!, {r4, r5, r6, r7, r8, r9, sl, fp}
 8004c16:	f380 8809 	msr	PSP, r0
 8004c1a:	f3bf 8f6f 	isb	sy
 8004c1e:	4770      	bx	lr

08004c20 <pxCurrentTCBConst>:
 8004c20:	20000754 	.word	0x20000754

08004c24 <xPortSysTickHandler>:
 8004c24:	b508      	push	{r3, lr}
 8004c26:	f04f 0350 	mov.w	r3, #80	; 0x50
 8004c2a:	f383 8811 	msr	BASEPRI, r3
 8004c2e:	f3bf 8f6f 	isb	sy
 8004c32:	f3bf 8f4f 	dsb	sy
 8004c36:	f7ff fae1 	bl	80041fc <xTaskIncrementTick>
 8004c3a:	b118      	cbz	r0, 8004c44 <xPortSysTickHandler+0x20>
 8004c3c:	f04f 5280 	mov.w	r2, #268435456	; 0x10000000
 8004c40:	4b02      	ldr	r3, [pc, #8]	; (8004c4c <xPortSysTickHandler+0x28>)
 8004c42:	601a      	str	r2, [r3, #0]
 8004c44:	2300      	movs	r3, #0
 8004c46:	f383 8811 	msr	BASEPRI, r3
 8004c4a:	bd08      	pop	{r3, pc}
 8004c4c:	e000ed04 	.word	0xe000ed04

08004c50 <vPortSetupTimerInterrupt>:
 8004c50:	2300      	movs	r3, #0
 8004c52:	4a08      	ldr	r2, [pc, #32]	; (8004c74 <vPortSetupTimerInterrupt+0x24>)
 8004c54:	4908      	ldr	r1, [pc, #32]	; (8004c78 <vPortSetupTimerInterrupt+0x28>)
 8004c56:	6013      	str	r3, [r2, #0]
 8004c58:	600b      	str	r3, [r1, #0]
 8004c5a:	f44f 717a 	mov.w	r1, #1000	; 0x3e8
 8004c5e:	4b07      	ldr	r3, [pc, #28]	; (8004c7c <vPortSetupTimerInterrupt+0x2c>)
 8004c60:	681b      	ldr	r3, [r3, #0]
 8004c62:	fbb3 f3f1 	udiv	r3, r3, r1
 8004c66:	4906      	ldr	r1, [pc, #24]	; (8004c80 <vPortSetupTimerInterrupt+0x30>)
 8004c68:	3b01      	subs	r3, #1
 8004c6a:	600b      	str	r3, [r1, #0]
 8004c6c:	2307      	movs	r3, #7
 8004c6e:	6013      	str	r3, [r2, #0]
 8004c70:	4770      	bx	lr
 8004c72:	bf00      	nop
 8004c74:	e000e010 	.word	0xe000e010
 8004c78:	e000e018 	.word	0xe000e018
 8004c7c:	20000000 	.word	0x20000000
 8004c80:	e000e014 	.word	0xe000e014

08004c84 <xPortStartScheduler>:
 8004c84:	b513      	push	{r0, r1, r4, lr}
 8004c86:	4b26      	ldr	r3, [pc, #152]	; (8004d20 <xPortStartScheduler+0x9c>)
 8004c88:	2100      	movs	r1, #0
 8004c8a:	781a      	ldrb	r2, [r3, #0]
 8004c8c:	b2d2      	uxtb	r2, r2
 8004c8e:	9201      	str	r2, [sp, #4]
 8004c90:	22ff      	movs	r2, #255	; 0xff
 8004c92:	701a      	strb	r2, [r3, #0]
 8004c94:	781b      	ldrb	r3, [r3, #0]
 8004c96:	4a23      	ldr	r2, [pc, #140]	; (8004d24 <xPortStartScheduler+0xa0>)
 8004c98:	b2db      	uxtb	r3, r3
 8004c9a:	f88d 3003 	strb.w	r3, [sp, #3]
 8004c9e:	f89d 3003 	ldrb.w	r3, [sp, #3]
 8004ca2:	f003 0350 	and.w	r3, r3, #80	; 0x50
 8004ca6:	7013      	strb	r3, [r2, #0]
 8004ca8:	2307      	movs	r3, #7
 8004caa:	4a1f      	ldr	r2, [pc, #124]	; (8004d28 <xPortStartScheduler+0xa4>)
 8004cac:	6013      	str	r3, [r2, #0]
 8004cae:	f89d 0003 	ldrb.w	r0, [sp, #3]
 8004cb2:	1e5c      	subs	r4, r3, #1
 8004cb4:	0600      	lsls	r0, r0, #24
 8004cb6:	d40c      	bmi.n	8004cd2 <xPortStartScheduler+0x4e>
 8004cb8:	b111      	cbz	r1, 8004cc0 <xPortStartScheduler+0x3c>
 8004cba:	2b03      	cmp	r3, #3
 8004cbc:	6013      	str	r3, [r2, #0]
 8004cbe:	d011      	beq.n	8004ce4 <xPortStartScheduler+0x60>
 8004cc0:	f04f 0350 	mov.w	r3, #80	; 0x50
 8004cc4:	f383 8811 	msr	BASEPRI, r3
 8004cc8:	f3bf 8f6f 	isb	sy
 8004ccc:	f3bf 8f4f 	dsb	sy
 8004cd0:	e7fe      	b.n	8004cd0 <xPortStartScheduler+0x4c>
 8004cd2:	f89d 3003 	ldrb.w	r3, [sp, #3]
 8004cd6:	2101      	movs	r1, #1
 8004cd8:	005b      	lsls	r3, r3, #1
 8004cda:	b2db      	uxtb	r3, r3
 8004cdc:	f88d 3003 	strb.w	r3, [sp, #3]
 8004ce0:	4623      	mov	r3, r4
 8004ce2:	e7e4      	b.n	8004cae <xPortStartScheduler+0x2a>
 8004ce4:	f44f 7340 	mov.w	r3, #768	; 0x300
 8004ce8:	2400      	movs	r4, #0
 8004cea:	6013      	str	r3, [r2, #0]
 8004cec:	9b01      	ldr	r3, [sp, #4]
 8004cee:	4a0c      	ldr	r2, [pc, #48]	; (8004d20 <xPortStartScheduler+0x9c>)
 8004cf0:	b2db      	uxtb	r3, r3
 8004cf2:	7013      	strb	r3, [r2, #0]
 8004cf4:	4b0d      	ldr	r3, [pc, #52]	; (8004d2c <xPortStartScheduler+0xa8>)
 8004cf6:	681a      	ldr	r2, [r3, #0]
 8004cf8:	f442 0270 	orr.w	r2, r2, #15728640	; 0xf00000
 8004cfc:	601a      	str	r2, [r3, #0]
 8004cfe:	681a      	ldr	r2, [r3, #0]
 8004d00:	f042 4270 	orr.w	r2, r2, #4026531840	; 0xf0000000
 8004d04:	601a      	str	r2, [r3, #0]
 8004d06:	f7ff ffa3 	bl	8004c50 <vPortSetupTimerInterrupt>
 8004d0a:	4b09      	ldr	r3, [pc, #36]	; (8004d30 <xPortStartScheduler+0xac>)
 8004d0c:	601c      	str	r4, [r3, #0]
 8004d0e:	f7ff fedd 	bl	8004acc <prvPortStartFirstTask>
 8004d12:	f7ff fb9b 	bl	800444c <vTaskSwitchContext>
 8004d16:	f7ff fee9 	bl	8004aec <prvTaskExitError>
 8004d1a:	4620      	mov	r0, r4
 8004d1c:	b002      	add	sp, #8
 8004d1e:	bd10      	pop	{r4, pc}
 8004d20:	e000e400 	.word	0xe000e400
 8004d24:	20000d7c 	.word	0x20000d7c
 8004d28:	20000d80 	.word	0x20000d80
 8004d2c:	e000ed20 	.word	0xe000ed20
 8004d30:	2000000c 	.word	0x2000000c

08004d34 <vPortValidateInterruptPriority>:
 8004d34:	f3ef 8305 	mrs	r3, IPSR
 8004d38:	2b0f      	cmp	r3, #15
 8004d3a:	d90e      	bls.n	8004d5a <vPortValidateInterruptPriority+0x26>
 8004d3c:	4a10      	ldr	r2, [pc, #64]	; (8004d80 <vPortValidateInterruptPriority+0x4c>)
 8004d3e:	5c9b      	ldrb	r3, [r3, r2]
 8004d40:	4a10      	ldr	r2, [pc, #64]	; (8004d84 <vPortValidateInterruptPriority+0x50>)
 8004d42:	7812      	ldrb	r2, [r2, #0]
 8004d44:	429a      	cmp	r2, r3
 8004d46:	d908      	bls.n	8004d5a <vPortValidateInterruptPriority+0x26>
 8004d48:	f04f 0350 	mov.w	r3, #80	; 0x50
 8004d4c:	f383 8811 	msr	BASEPRI, r3
 8004d50:	f3bf 8f6f 	isb	sy
 8004d54:	f3bf 8f4f 	dsb	sy
 8004d58:	e7fe      	b.n	8004d58 <vPortValidateInterruptPriority+0x24>
 8004d5a:	4b0b      	ldr	r3, [pc, #44]	; (8004d88 <vPortValidateInterruptPriority+0x54>)
 8004d5c:	4a0b      	ldr	r2, [pc, #44]	; (8004d8c <vPortValidateInterruptPriority+0x58>)
 8004d5e:	681b      	ldr	r3, [r3, #0]
 8004d60:	6812      	ldr	r2, [r2, #0]
 8004d62:	f403 63e0 	and.w	r3, r3, #1792	; 0x700
 8004d66:	4293      	cmp	r3, r2
 8004d68:	d908      	bls.n	8004d7c <vPortValidateInterruptPriority+0x48>
 8004d6a:	f04f 0350 	mov.w	r3, #80	; 0x50
 8004d6e:	f383 8811 	msr	BASEPRI, r3
 8004d72:	f3bf 8f6f 	isb	sy
 8004d76:	f3bf 8f4f 	dsb	sy
 8004d7a:	e7fe      	b.n	8004d7a <vPortValidateInterruptPriority+0x46>
 8004d7c:	4770      	bx	lr
 8004d7e:	bf00      	nop
 8004d80:	e000e3f0 	.word	0xe000e3f0
 8004d84:	20000d7c 	.word	0x20000d7c
 8004d88:	e000ed0c 	.word	0xe000ed0c
 8004d8c:	20000d80 	.word	0x20000d80

08004d90 <prvInsertBlockIntoFreeList>:
 8004d90:	b510      	push	{r4, lr}
 8004d92:	4b0f      	ldr	r3, [pc, #60]	; (8004dd0 <prvInsertBlockIntoFreeList+0x40>)
 8004d94:	461a      	mov	r2, r3
 8004d96:	681b      	ldr	r3, [r3, #0]
 8004d98:	4283      	cmp	r3, r0
 8004d9a:	d3fb      	bcc.n	8004d94 <prvInsertBlockIntoFreeList+0x4>
 8004d9c:	6854      	ldr	r4, [r2, #4]
 8004d9e:	1911      	adds	r1, r2, r4
 8004da0:	4288      	cmp	r0, r1
 8004da2:	bf01      	itttt	eq
 8004da4:	6841      	ldreq	r1, [r0, #4]
 8004da6:	4610      	moveq	r0, r2
 8004da8:	1909      	addeq	r1, r1, r4
 8004daa:	6051      	streq	r1, [r2, #4]
 8004dac:	6844      	ldr	r4, [r0, #4]
 8004dae:	1901      	adds	r1, r0, r4
 8004db0:	428b      	cmp	r3, r1
 8004db2:	d107      	bne.n	8004dc4 <prvInsertBlockIntoFreeList+0x34>
 8004db4:	4907      	ldr	r1, [pc, #28]	; (8004dd4 <prvInsertBlockIntoFreeList+0x44>)
 8004db6:	6809      	ldr	r1, [r1, #0]
 8004db8:	428b      	cmp	r3, r1
 8004dba:	bf1f      	itttt	ne
 8004dbc:	6859      	ldrne	r1, [r3, #4]
 8004dbe:	681b      	ldrne	r3, [r3, #0]
 8004dc0:	1909      	addne	r1, r1, r4
 8004dc2:	6041      	strne	r1, [r0, #4]
 8004dc4:	4290      	cmp	r0, r2
 8004dc6:	6003      	str	r3, [r0, #0]
 8004dc8:	bf18      	it	ne
 8004dca:	6010      	strne	r0, [r2, #0]
 8004dcc:	bd10      	pop	{r4, pc}
 8004dce:	bf00      	nop
 8004dd0:	20001994 	.word	0x20001994
 8004dd4:	20000d84 	.word	0x20000d84

08004dd8 <pvPortMalloc>:
 8004dd8:	e92d 41f0 	stmdb	sp!, {r4, r5, r6, r7, r8, lr}
 8004ddc:	4604      	mov	r4, r0
 8004dde:	f7ff f9ff 	bl	80041e0 <vTaskSuspendAll>
 8004de2:	4b3b      	ldr	r3, [pc, #236]	; (8004ed0 <pvPortMalloc+0xf8>)
 8004de4:	483b      	ldr	r0, [pc, #236]	; (8004ed4 <pvPortMalloc+0xfc>)
 8004de6:	681a      	ldr	r2, [r3, #0]
 8004de8:	469c      	mov	ip, r3
 8004dea:	b9d2      	cbnz	r2, 8004e22 <pvPortMalloc+0x4a>
 8004dec:	2100      	movs	r1, #0
 8004dee:	4a3a      	ldr	r2, [pc, #232]	; (8004ed8 <pvPortMalloc+0x100>)
 8004df0:	4b3a      	ldr	r3, [pc, #232]	; (8004edc <pvPortMalloc+0x104>)
 8004df2:	0755      	lsls	r5, r2, #29
 8004df4:	bf1c      	itt	ne
 8004df6:	3207      	addne	r2, #7
 8004df8:	f022 0207 	bicne.w	r2, r2, #7
 8004dfc:	601a      	str	r2, [r3, #0]
 8004dfe:	6059      	str	r1, [r3, #4]
 8004e00:	4b37      	ldr	r3, [pc, #220]	; (8004ee0 <pvPortMalloc+0x108>)
 8004e02:	f023 0307 	bic.w	r3, r3, #7
 8004e06:	e9c3 1100 	strd	r1, r1, [r3]
 8004e0a:	1a99      	subs	r1, r3, r2
 8004e0c:	e9c2 3100 	strd	r3, r1, [r2]
 8004e10:	f8cc 3000 	str.w	r3, [ip]
 8004e14:	4b33      	ldr	r3, [pc, #204]	; (8004ee4 <pvPortMalloc+0x10c>)
 8004e16:	6019      	str	r1, [r3, #0]
 8004e18:	4b33      	ldr	r3, [pc, #204]	; (8004ee8 <pvPortMalloc+0x110>)
 8004e1a:	6019      	str	r1, [r3, #0]
 8004e1c:	f04f 4300 	mov.w	r3, #2147483648	; 0x80000000
 8004e20:	6003      	str	r3, [r0, #0]
 8004e22:	6807      	ldr	r7, [r0, #0]
 8004e24:	4227      	tst	r7, r4
 8004e26:	d14e      	bne.n	8004ec6 <pvPortMalloc+0xee>
 8004e28:	2c00      	cmp	r4, #0
 8004e2a:	d03f      	beq.n	8004eac <pvPortMalloc+0xd4>
 8004e2c:	f104 0308 	add.w	r3, r4, #8
 8004e30:	0761      	lsls	r1, r4, #29
 8004e32:	bf1c      	itt	ne
 8004e34:	f023 0307 	bicne.w	r3, r3, #7
 8004e38:	3308      	addne	r3, #8
 8004e3a:	2b00      	cmp	r3, #0
 8004e3c:	d043      	beq.n	8004ec6 <pvPortMalloc+0xee>
 8004e3e:	4a2a      	ldr	r2, [pc, #168]	; (8004ee8 <pvPortMalloc+0x110>)
 8004e40:	6816      	ldr	r6, [r2, #0]
 8004e42:	4690      	mov	r8, r2
 8004e44:	429e      	cmp	r6, r3
 8004e46:	d33e      	bcc.n	8004ec6 <pvPortMalloc+0xee>
 8004e48:	4a24      	ldr	r2, [pc, #144]	; (8004edc <pvPortMalloc+0x104>)
 8004e4a:	6815      	ldr	r5, [r2, #0]
 8004e4c:	6869      	ldr	r1, [r5, #4]
 8004e4e:	4299      	cmp	r1, r3
 8004e50:	d201      	bcs.n	8004e56 <pvPortMalloc+0x7e>
 8004e52:	6828      	ldr	r0, [r5, #0]
 8004e54:	b9a8      	cbnz	r0, 8004e82 <pvPortMalloc+0xaa>
 8004e56:	f8dc 0000 	ldr.w	r0, [ip]
 8004e5a:	42a8      	cmp	r0, r5
 8004e5c:	d033      	beq.n	8004ec6 <pvPortMalloc+0xee>
 8004e5e:	6828      	ldr	r0, [r5, #0]
 8004e60:	1ac9      	subs	r1, r1, r3
 8004e62:	2910      	cmp	r1, #16
 8004e64:	6814      	ldr	r4, [r2, #0]
 8004e66:	6010      	str	r0, [r2, #0]
 8004e68:	d912      	bls.n	8004e90 <pvPortMalloc+0xb8>
 8004e6a:	18e8      	adds	r0, r5, r3
 8004e6c:	0742      	lsls	r2, r0, #29
 8004e6e:	d00b      	beq.n	8004e88 <pvPortMalloc+0xb0>
 8004e70:	f04f 0350 	mov.w	r3, #80	; 0x50
 8004e74:	f383 8811 	msr	BASEPRI, r3
 8004e78:	f3bf 8f6f 	isb	sy
 8004e7c:	f3bf 8f4f 	dsb	sy
 8004e80:	e7fe      	b.n	8004e80 <pvPortMalloc+0xa8>
 8004e82:	462a      	mov	r2, r5
 8004e84:	4605      	mov	r5, r0
 8004e86:	e7e1      	b.n	8004e4c <pvPortMalloc+0x74>
 8004e88:	6041      	str	r1, [r0, #4]
 8004e8a:	606b      	str	r3, [r5, #4]
 8004e8c:	f7ff ff80 	bl	8004d90 <prvInsertBlockIntoFreeList>
 8004e90:	686b      	ldr	r3, [r5, #4]
 8004e92:	4914      	ldr	r1, [pc, #80]	; (8004ee4 <pvPortMalloc+0x10c>)
 8004e94:	1af6      	subs	r6, r6, r3
 8004e96:	431f      	orrs	r7, r3
 8004e98:	2300      	movs	r3, #0
 8004e9a:	6808      	ldr	r0, [r1, #0]
 8004e9c:	f8c8 6000 	str.w	r6, [r8]
 8004ea0:	4286      	cmp	r6, r0
 8004ea2:	bf38      	it	cc
 8004ea4:	600e      	strcc	r6, [r1, #0]
 8004ea6:	3408      	adds	r4, #8
 8004ea8:	606f      	str	r7, [r5, #4]
 8004eaa:	602b      	str	r3, [r5, #0]
 8004eac:	f7ff fa36 	bl	800431c <xTaskResumeAll>
 8004eb0:	0763      	lsls	r3, r4, #29
 8004eb2:	d00a      	beq.n	8004eca <pvPortMalloc+0xf2>
 8004eb4:	f04f 0350 	mov.w	r3, #80	; 0x50
 8004eb8:	f383 8811 	msr	BASEPRI, r3
 8004ebc:	f3bf 8f6f 	isb	sy
 8004ec0:	f3bf 8f4f 	dsb	sy
 8004ec4:	e7fe      	b.n	8004ec4 <pvPortMalloc+0xec>
 8004ec6:	2400      	movs	r4, #0
 8004ec8:	e7f0      	b.n	8004eac <pvPortMalloc+0xd4>
 8004eca:	4620      	mov	r0, r4
 8004ecc:	e8bd 81f0 	ldmia.w	sp!, {r4, r5, r6, r7, r8, pc}
 8004ed0:	20000d84 	.word	0x20000d84
 8004ed4:	20001988 	.word	0x20001988
 8004ed8:	20000d88 	.word	0x20000d88
 8004edc:	20001994 	.word	0x20001994
 8004ee0:	20001980 	.word	0x20001980
 8004ee4:	20001990 	.word	0x20001990
 8004ee8:	2000198c 	.word	0x2000198c

08004eec <vPortFree>:
 8004eec:	b510      	push	{r4, lr}
 8004eee:	4604      	mov	r4, r0
 8004ef0:	b370      	cbz	r0, 8004f50 <vPortFree+0x64>
 8004ef2:	4a18      	ldr	r2, [pc, #96]	; (8004f54 <vPortFree+0x68>)
 8004ef4:	f850 3c04 	ldr.w	r3, [r0, #-4]
 8004ef8:	6812      	ldr	r2, [r2, #0]
 8004efa:	4213      	tst	r3, r2
 8004efc:	d108      	bne.n	8004f10 <vPortFree+0x24>
 8004efe:	f04f 0350 	mov.w	r3, #80	; 0x50
 8004f02:	f383 8811 	msr	BASEPRI, r3
 8004f06:	f3bf 8f6f 	isb	sy
 8004f0a:	f3bf 8f4f 	dsb	sy
 8004f0e:	e7fe      	b.n	8004f0e <vPortFree+0x22>
 8004f10:	f850 1c08 	ldr.w	r1, [r0, #-8]
 8004f14:	b141      	cbz	r1, 8004f28 <vPortFree+0x3c>
 8004f16:	f04f 0350 	mov.w	r3, #80	; 0x50
 8004f1a:	f383 8811 	msr	BASEPRI, r3
 8004f1e:	f3bf 8f6f 	isb	sy
 8004f22:	f3bf 8f4f 	dsb	sy
 8004f26:	e7fe      	b.n	8004f26 <vPortFree+0x3a>
 8004f28:	ea23 0302 	bic.w	r3, r3, r2
 8004f2c:	f840 3c04 	str.w	r3, [r0, #-4]
 8004f30:	f7ff f956 	bl	80041e0 <vTaskSuspendAll>
 8004f34:	4a08      	ldr	r2, [pc, #32]	; (8004f58 <vPortFree+0x6c>)
 8004f36:	f854 3c04 	ldr.w	r3, [r4, #-4]
 8004f3a:	6811      	ldr	r1, [r2, #0]
 8004f3c:	f1a4 0008 	sub.w	r0, r4, #8
 8004f40:	440b      	add	r3, r1
 8004f42:	6013      	str	r3, [r2, #0]
 8004f44:	f7ff ff24 	bl	8004d90 <prvInsertBlockIntoFreeList>
 8004f48:	e8bd 4010 	ldmia.w	sp!, {r4, lr}
 8004f4c:	f7ff b9e6 	b.w	800431c <xTaskResumeAll>
 8004f50:	bd10      	pop	{r4, pc}
 8004f52:	bf00      	nop
 8004f54:	20001988 	.word	0x20001988
 8004f58:	2000198c 	.word	0x2000198c

08004f5c <atoi>:
 8004f5c:	220a      	movs	r2, #10
 8004f5e:	2100      	movs	r1, #0
 8004f60:	f000 b8ee 	b.w	8005140 <strtol>

08004f64 <__errno>:
 8004f64:	4b01      	ldr	r3, [pc, #4]	; (8004f6c <__errno+0x8>)
 8004f66:	6818      	ldr	r0, [r3, #0]
 8004f68:	4770      	bx	lr
 8004f6a:	bf00      	nop
 8004f6c:	20000010 	.word	0x20000010

08004f70 <__libc_init_array>:
 8004f70:	b570      	push	{r4, r5, r6, lr}
 8004f72:	2600      	movs	r6, #0
 8004f74:	4d0c      	ldr	r5, [pc, #48]	; (8004fa8 <__libc_init_array+0x38>)
 8004f76:	4c0d      	ldr	r4, [pc, #52]	; (8004fac <__libc_init_array+0x3c>)
 8004f78:	1b64      	subs	r4, r4, r5
 8004f7a:	10a4      	asrs	r4, r4, #2
 8004f7c:	42a6      	cmp	r6, r4
 8004f7e:	d109      	bne.n	8004f94 <__libc_init_array+0x24>
 8004f80:	f000 fcf4 	bl	800596c <_init>
 8004f84:	2600      	movs	r6, #0
 8004f86:	4d0a      	ldr	r5, [pc, #40]	; (8004fb0 <__libc_init_array+0x40>)
 8004f88:	4c0a      	ldr	r4, [pc, #40]	; (8004fb4 <__libc_init_array+0x44>)
 8004f8a:	1b64      	subs	r4, r4, r5
 8004f8c:	10a4      	asrs	r4, r4, #2
 8004f8e:	42a6      	cmp	r6, r4
 8004f90:	d105      	bne.n	8004f9e <__libc_init_array+0x2e>
 8004f92:	bd70      	pop	{r4, r5, r6, pc}
 8004f94:	f855 3b04 	ldr.w	r3, [r5], #4
 8004f98:	4798      	blx	r3
 8004f9a:	3601      	adds	r6, #1
 8004f9c:	e7ee      	b.n	8004f7c <__libc_init_array+0xc>
 8004f9e:	f855 3b04 	ldr.w	r3, [r5], #4
 8004fa2:	4798      	blx	r3
 8004fa4:	3601      	adds	r6, #1
 8004fa6:	e7f2      	b.n	8004f8e <__libc_init_array+0x1e>
 8004fa8:	08006658 	.word	0x08006658
 8004fac:	08006658 	.word	0x08006658
 8004fb0:	08006658 	.word	0x08006658
 8004fb4:	0800665c 	.word	0x0800665c

08004fb8 <memcpy>:
 8004fb8:	440a      	add	r2, r1
 8004fba:	4291      	cmp	r1, r2
 8004fbc:	f100 33ff 	add.w	r3, r0, #4294967295
 8004fc0:	d100      	bne.n	8004fc4 <memcpy+0xc>
 8004fc2:	4770      	bx	lr
 8004fc4:	b510      	push	{r4, lr}
 8004fc6:	f811 4b01 	ldrb.w	r4, [r1], #1
 8004fca:	4291      	cmp	r1, r2
 8004fcc:	f803 4f01 	strb.w	r4, [r3, #1]!
 8004fd0:	d1f9      	bne.n	8004fc6 <memcpy+0xe>
 8004fd2:	bd10      	pop	{r4, pc}

08004fd4 <memset>:
 8004fd4:	4603      	mov	r3, r0
 8004fd6:	4402      	add	r2, r0
 8004fd8:	4293      	cmp	r3, r2
 8004fda:	d100      	bne.n	8004fde <memset+0xa>
 8004fdc:	4770      	bx	lr
 8004fde:	f803 1b01 	strb.w	r1, [r3], #1
 8004fe2:	e7f9      	b.n	8004fd8 <memset+0x4>

08004fe4 <siprintf>:
 8004fe4:	b40e      	push	{r1, r2, r3}
 8004fe6:	f06f 4100 	mvn.w	r1, #2147483648	; 0x80000000
 8004fea:	b500      	push	{lr}
 8004fec:	b09c      	sub	sp, #112	; 0x70
 8004fee:	ab1d      	add	r3, sp, #116	; 0x74
 8004ff0:	9002      	str	r0, [sp, #8]
 8004ff2:	9006      	str	r0, [sp, #24]
 8004ff4:	9107      	str	r1, [sp, #28]
 8004ff6:	9104      	str	r1, [sp, #16]
 8004ff8:	4808      	ldr	r0, [pc, #32]	; (800501c <siprintf+0x38>)
 8004ffa:	4909      	ldr	r1, [pc, #36]	; (8005020 <siprintf+0x3c>)
 8004ffc:	f853 2b04 	ldr.w	r2, [r3], #4
 8005000:	9105      	str	r1, [sp, #20]
 8005002:	6800      	ldr	r0, [r0, #0]
 8005004:	a902      	add	r1, sp, #8
 8005006:	9301      	str	r3, [sp, #4]
 8005008:	f000 f900 	bl	800520c <_svfiprintf_r>
 800500c:	2200      	movs	r2, #0
 800500e:	9b02      	ldr	r3, [sp, #8]
 8005010:	701a      	strb	r2, [r3, #0]
 8005012:	b01c      	add	sp, #112	; 0x70
 8005014:	f85d eb04 	ldr.w	lr, [sp], #4
 8005018:	b003      	add	sp, #12
 800501a:	4770      	bx	lr
 800501c:	20000010 	.word	0x20000010
 8005020:	ffff0208 	.word	0xffff0208

08005024 <strcpy>:
 8005024:	4603      	mov	r3, r0
 8005026:	f811 2b01 	ldrb.w	r2, [r1], #1
 800502a:	f803 2b01 	strb.w	r2, [r3], #1
 800502e:	2a00      	cmp	r2, #0
 8005030:	d1f9      	bne.n	8005026 <strcpy+0x2>
 8005032:	4770      	bx	lr

08005034 <_strtol_l.isra.0>:
 8005034:	2b01      	cmp	r3, #1
 8005036:	e92d 47f0 	stmdb	sp!, {r4, r5, r6, r7, r8, r9, sl, lr}
 800503a:	4686      	mov	lr, r0
 800503c:	d001      	beq.n	8005042 <_strtol_l.isra.0+0xe>
 800503e:	2b24      	cmp	r3, #36	; 0x24
 8005040:	d906      	bls.n	8005050 <_strtol_l.isra.0+0x1c>
 8005042:	f7ff ff8f 	bl	8004f64 <__errno>
 8005046:	2316      	movs	r3, #22
 8005048:	6003      	str	r3, [r0, #0]
 800504a:	2000      	movs	r0, #0
 800504c:	e8bd 87f0 	ldmia.w	sp!, {r4, r5, r6, r7, r8, r9, sl, pc}
 8005050:	468c      	mov	ip, r1
 8005052:	4e3a      	ldr	r6, [pc, #232]	; (800513c <_strtol_l.isra.0+0x108>)
 8005054:	4660      	mov	r0, ip
 8005056:	f81c 4b01 	ldrb.w	r4, [ip], #1
 800505a:	5da5      	ldrb	r5, [r4, r6]
 800505c:	f015 0508 	ands.w	r5, r5, #8
 8005060:	d1f8      	bne.n	8005054 <_strtol_l.isra.0+0x20>
 8005062:	2c2d      	cmp	r4, #45	; 0x2d
 8005064:	d133      	bne.n	80050ce <_strtol_l.isra.0+0x9a>
 8005066:	f04f 0801 	mov.w	r8, #1
 800506a:	f89c 4000 	ldrb.w	r4, [ip]
 800506e:	f100 0c02 	add.w	ip, r0, #2
 8005072:	2b00      	cmp	r3, #0
 8005074:	d05d      	beq.n	8005132 <_strtol_l.isra.0+0xfe>
 8005076:	2b10      	cmp	r3, #16
 8005078:	d10c      	bne.n	8005094 <_strtol_l.isra.0+0x60>
 800507a:	2c30      	cmp	r4, #48	; 0x30
 800507c:	d10a      	bne.n	8005094 <_strtol_l.isra.0+0x60>
 800507e:	f89c 0000 	ldrb.w	r0, [ip]
 8005082:	f000 00df 	and.w	r0, r0, #223	; 0xdf
 8005086:	2858      	cmp	r0, #88	; 0x58
 8005088:	d14e      	bne.n	8005128 <_strtol_l.isra.0+0xf4>
 800508a:	2310      	movs	r3, #16
 800508c:	f89c 4001 	ldrb.w	r4, [ip, #1]
 8005090:	f10c 0c02 	add.w	ip, ip, #2
 8005094:	2500      	movs	r5, #0
 8005096:	f108 4700 	add.w	r7, r8, #2147483648	; 0x80000000
 800509a:	3f01      	subs	r7, #1
 800509c:	fbb7 f9f3 	udiv	r9, r7, r3
 80050a0:	4628      	mov	r0, r5
 80050a2:	fb03 7a19 	mls	sl, r3, r9, r7
 80050a6:	f1a4 0630 	sub.w	r6, r4, #48	; 0x30
 80050aa:	2e09      	cmp	r6, #9
 80050ac:	d818      	bhi.n	80050e0 <_strtol_l.isra.0+0xac>
 80050ae:	4634      	mov	r4, r6
 80050b0:	42a3      	cmp	r3, r4
 80050b2:	dd24      	ble.n	80050fe <_strtol_l.isra.0+0xca>
 80050b4:	2d00      	cmp	r5, #0
 80050b6:	db1f      	blt.n	80050f8 <_strtol_l.isra.0+0xc4>
 80050b8:	4581      	cmp	r9, r0
 80050ba:	d31d      	bcc.n	80050f8 <_strtol_l.isra.0+0xc4>
 80050bc:	d101      	bne.n	80050c2 <_strtol_l.isra.0+0x8e>
 80050be:	45a2      	cmp	sl, r4
 80050c0:	db1a      	blt.n	80050f8 <_strtol_l.isra.0+0xc4>
 80050c2:	2501      	movs	r5, #1
 80050c4:	fb00 4003 	mla	r0, r0, r3, r4
 80050c8:	f81c 4b01 	ldrb.w	r4, [ip], #1
 80050cc:	e7eb      	b.n	80050a6 <_strtol_l.isra.0+0x72>
 80050ce:	2c2b      	cmp	r4, #43	; 0x2b
 80050d0:	bf08      	it	eq
 80050d2:	f89c 4000 	ldrbeq.w	r4, [ip]
 80050d6:	46a8      	mov	r8, r5
 80050d8:	bf08      	it	eq
 80050da:	f100 0c02 	addeq.w	ip, r0, #2
 80050de:	e7c8      	b.n	8005072 <_strtol_l.isra.0+0x3e>
 80050e0:	f1a4 0641 	sub.w	r6, r4, #65	; 0x41
 80050e4:	2e19      	cmp	r6, #25
 80050e6:	d801      	bhi.n	80050ec <_strtol_l.isra.0+0xb8>
 80050e8:	3c37      	subs	r4, #55	; 0x37
 80050ea:	e7e1      	b.n	80050b0 <_strtol_l.isra.0+0x7c>
 80050ec:	f1a4 0661 	sub.w	r6, r4, #97	; 0x61
 80050f0:	2e19      	cmp	r6, #25
 80050f2:	d804      	bhi.n	80050fe <_strtol_l.isra.0+0xca>
 80050f4:	3c57      	subs	r4, #87	; 0x57
 80050f6:	e7db      	b.n	80050b0 <_strtol_l.isra.0+0x7c>
 80050f8:	f04f 35ff 	mov.w	r5, #4294967295
 80050fc:	e7e4      	b.n	80050c8 <_strtol_l.isra.0+0x94>
 80050fe:	2d00      	cmp	r5, #0
 8005100:	da08      	bge.n	8005114 <_strtol_l.isra.0+0xe0>
 8005102:	2322      	movs	r3, #34	; 0x22
 8005104:	4638      	mov	r0, r7
 8005106:	f8ce 3000 	str.w	r3, [lr]
 800510a:	2a00      	cmp	r2, #0
 800510c:	d09e      	beq.n	800504c <_strtol_l.isra.0+0x18>
 800510e:	f10c 31ff 	add.w	r1, ip, #4294967295
 8005112:	e007      	b.n	8005124 <_strtol_l.isra.0+0xf0>
 8005114:	f1b8 0f00 	cmp.w	r8, #0
 8005118:	d000      	beq.n	800511c <_strtol_l.isra.0+0xe8>
 800511a:	4240      	negs	r0, r0
 800511c:	2a00      	cmp	r2, #0
 800511e:	d095      	beq.n	800504c <_strtol_l.isra.0+0x18>
 8005120:	2d00      	cmp	r5, #0
 8005122:	d1f4      	bne.n	800510e <_strtol_l.isra.0+0xda>
 8005124:	6011      	str	r1, [r2, #0]
 8005126:	e791      	b.n	800504c <_strtol_l.isra.0+0x18>
 8005128:	2430      	movs	r4, #48	; 0x30
 800512a:	2b00      	cmp	r3, #0
 800512c:	d1b2      	bne.n	8005094 <_strtol_l.isra.0+0x60>
 800512e:	2308      	movs	r3, #8
 8005130:	e7b0      	b.n	8005094 <_strtol_l.isra.0+0x60>
 8005132:	2c30      	cmp	r4, #48	; 0x30
 8005134:	d0a3      	beq.n	800507e <_strtol_l.isra.0+0x4a>
 8005136:	230a      	movs	r3, #10
 8005138:	e7ac      	b.n	8005094 <_strtol_l.isra.0+0x60>
 800513a:	bf00      	nop
 800513c:	08006524 	.word	0x08006524

08005140 <strtol>:
 8005140:	4613      	mov	r3, r2
 8005142:	460a      	mov	r2, r1
 8005144:	4601      	mov	r1, r0
 8005146:	4802      	ldr	r0, [pc, #8]	; (8005150 <strtol+0x10>)
 8005148:	6800      	ldr	r0, [r0, #0]
 800514a:	f7ff bf73 	b.w	8005034 <_strtol_l.isra.0>
 800514e:	bf00      	nop
 8005150:	20000010 	.word	0x20000010

08005154 <__ssputs_r>:
 8005154:	e92d 47f0 	stmdb	sp!, {r4, r5, r6, r7, r8, r9, sl, lr}
 8005158:	688e      	ldr	r6, [r1, #8]
 800515a:	4682      	mov	sl, r0
 800515c:	429e      	cmp	r6, r3
 800515e:	460c      	mov	r4, r1
 8005160:	4690      	mov	r8, r2
 8005162:	461f      	mov	r7, r3
 8005164:	d838      	bhi.n	80051d8 <__ssputs_r+0x84>
 8005166:	898a      	ldrh	r2, [r1, #12]
 8005168:	f412 6f90 	tst.w	r2, #1152	; 0x480
 800516c:	d032      	beq.n	80051d4 <__ssputs_r+0x80>
 800516e:	6825      	ldr	r5, [r4, #0]
 8005170:	6909      	ldr	r1, [r1, #16]
 8005172:	3301      	adds	r3, #1
 8005174:	eba5 0901 	sub.w	r9, r5, r1
 8005178:	6965      	ldr	r5, [r4, #20]
 800517a:	444b      	add	r3, r9
 800517c:	eb05 0545 	add.w	r5, r5, r5, lsl #1
 8005180:	eb05 75d5 	add.w	r5, r5, r5, lsr #31
 8005184:	106d      	asrs	r5, r5, #1
 8005186:	429d      	cmp	r5, r3
 8005188:	bf38      	it	cc
 800518a:	461d      	movcc	r5, r3
 800518c:	0553      	lsls	r3, r2, #21
 800518e:	d531      	bpl.n	80051f4 <__ssputs_r+0xa0>
 8005190:	4629      	mov	r1, r5
 8005192:	f000 fb45 	bl	8005820 <_malloc_r>
 8005196:	4606      	mov	r6, r0
 8005198:	b950      	cbnz	r0, 80051b0 <__ssputs_r+0x5c>
 800519a:	230c      	movs	r3, #12
 800519c:	f04f 30ff 	mov.w	r0, #4294967295
 80051a0:	f8ca 3000 	str.w	r3, [sl]
 80051a4:	89a3      	ldrh	r3, [r4, #12]
 80051a6:	f043 0340 	orr.w	r3, r3, #64	; 0x40
 80051aa:	81a3      	strh	r3, [r4, #12]
 80051ac:	e8bd 87f0 	ldmia.w	sp!, {r4, r5, r6, r7, r8, r9, sl, pc}
 80051b0:	464a      	mov	r2, r9
 80051b2:	6921      	ldr	r1, [r4, #16]
 80051b4:	f7ff ff00 	bl	8004fb8 <memcpy>
 80051b8:	89a3      	ldrh	r3, [r4, #12]
 80051ba:	f423 6390 	bic.w	r3, r3, #1152	; 0x480
 80051be:	f043 0380 	orr.w	r3, r3, #128	; 0x80
 80051c2:	81a3      	strh	r3, [r4, #12]
 80051c4:	6126      	str	r6, [r4, #16]
 80051c6:	444e      	add	r6, r9
 80051c8:	6026      	str	r6, [r4, #0]
 80051ca:	463e      	mov	r6, r7
 80051cc:	6165      	str	r5, [r4, #20]
 80051ce:	eba5 0509 	sub.w	r5, r5, r9
 80051d2:	60a5      	str	r5, [r4, #8]
 80051d4:	42be      	cmp	r6, r7
 80051d6:	d900      	bls.n	80051da <__ssputs_r+0x86>
 80051d8:	463e      	mov	r6, r7
 80051da:	4632      	mov	r2, r6
 80051dc:	4641      	mov	r1, r8
 80051de:	6820      	ldr	r0, [r4, #0]
 80051e0:	f000 fab8 	bl	8005754 <memmove>
 80051e4:	68a3      	ldr	r3, [r4, #8]
 80051e6:	6822      	ldr	r2, [r4, #0]
 80051e8:	1b9b      	subs	r3, r3, r6
 80051ea:	4432      	add	r2, r6
 80051ec:	2000      	movs	r0, #0
 80051ee:	60a3      	str	r3, [r4, #8]
 80051f0:	6022      	str	r2, [r4, #0]
 80051f2:	e7db      	b.n	80051ac <__ssputs_r+0x58>
 80051f4:	462a      	mov	r2, r5
 80051f6:	f000 fb6d 	bl	80058d4 <_realloc_r>
 80051fa:	4606      	mov	r6, r0
 80051fc:	2800      	cmp	r0, #0
 80051fe:	d1e1      	bne.n	80051c4 <__ssputs_r+0x70>
 8005200:	4650      	mov	r0, sl
 8005202:	6921      	ldr	r1, [r4, #16]
 8005204:	f000 fac0 	bl	8005788 <_free_r>
 8005208:	e7c7      	b.n	800519a <__ssputs_r+0x46>
	...

0800520c <_svfiprintf_r>:
 800520c:	e92d 4ff0 	stmdb	sp!, {r4, r5, r6, r7, r8, r9, sl, fp, lr}
 8005210:	4698      	mov	r8, r3
 8005212:	898b      	ldrh	r3, [r1, #12]
 8005214:	4607      	mov	r7, r0
 8005216:	061b      	lsls	r3, r3, #24
 8005218:	460d      	mov	r5, r1
 800521a:	4614      	mov	r4, r2
 800521c:	b09d      	sub	sp, #116	; 0x74
 800521e:	d50e      	bpl.n	800523e <_svfiprintf_r+0x32>
 8005220:	690b      	ldr	r3, [r1, #16]
 8005222:	b963      	cbnz	r3, 800523e <_svfiprintf_r+0x32>
 8005224:	2140      	movs	r1, #64	; 0x40
 8005226:	f000 fafb 	bl	8005820 <_malloc_r>
 800522a:	6028      	str	r0, [r5, #0]
 800522c:	6128      	str	r0, [r5, #16]
 800522e:	b920      	cbnz	r0, 800523a <_svfiprintf_r+0x2e>
 8005230:	230c      	movs	r3, #12
 8005232:	603b      	str	r3, [r7, #0]
 8005234:	f04f 30ff 	mov.w	r0, #4294967295
 8005238:	e0d1      	b.n	80053de <_svfiprintf_r+0x1d2>
 800523a:	2340      	movs	r3, #64	; 0x40
 800523c:	616b      	str	r3, [r5, #20]
 800523e:	2300      	movs	r3, #0
 8005240:	9309      	str	r3, [sp, #36]	; 0x24
 8005242:	2320      	movs	r3, #32
 8005244:	f88d 3029 	strb.w	r3, [sp, #41]	; 0x29
 8005248:	2330      	movs	r3, #48	; 0x30
 800524a:	f04f 0901 	mov.w	r9, #1
 800524e:	f8cd 800c 	str.w	r8, [sp, #12]
 8005252:	f8df 81a4 	ldr.w	r8, [pc, #420]	; 80053f8 <_svfiprintf_r+0x1ec>
 8005256:	f88d 302a 	strb.w	r3, [sp, #42]	; 0x2a
 800525a:	4623      	mov	r3, r4
 800525c:	469a      	mov	sl, r3
 800525e:	f813 2b01 	ldrb.w	r2, [r3], #1
 8005262:	b10a      	cbz	r2, 8005268 <_svfiprintf_r+0x5c>
 8005264:	2a25      	cmp	r2, #37	; 0x25
 8005266:	d1f9      	bne.n	800525c <_svfiprintf_r+0x50>
 8005268:	ebba 0b04 	subs.w	fp, sl, r4
 800526c:	d00b      	beq.n	8005286 <_svfiprintf_r+0x7a>
 800526e:	465b      	mov	r3, fp
 8005270:	4622      	mov	r2, r4
 8005272:	4629      	mov	r1, r5
 8005274:	4638      	mov	r0, r7
 8005276:	f7ff ff6d 	bl	8005154 <__ssputs_r>
 800527a:	3001      	adds	r0, #1
 800527c:	f000 80aa 	beq.w	80053d4 <_svfiprintf_r+0x1c8>
 8005280:	9a09      	ldr	r2, [sp, #36]	; 0x24
 8005282:	445a      	add	r2, fp
 8005284:	9209      	str	r2, [sp, #36]	; 0x24
 8005286:	f89a 3000 	ldrb.w	r3, [sl]
 800528a:	2b00      	cmp	r3, #0
 800528c:	f000 80a2 	beq.w	80053d4 <_svfiprintf_r+0x1c8>
 8005290:	2300      	movs	r3, #0
 8005292:	f04f 32ff 	mov.w	r2, #4294967295
 8005296:	e9cd 2305 	strd	r2, r3, [sp, #20]
 800529a:	f10a 0a01 	add.w	sl, sl, #1
 800529e:	9304      	str	r3, [sp, #16]
 80052a0:	9307      	str	r3, [sp, #28]
 80052a2:	f88d 3053 	strb.w	r3, [sp, #83]	; 0x53
 80052a6:	931a      	str	r3, [sp, #104]	; 0x68
 80052a8:	4654      	mov	r4, sl
 80052aa:	2205      	movs	r2, #5
 80052ac:	f814 1b01 	ldrb.w	r1, [r4], #1
 80052b0:	4851      	ldr	r0, [pc, #324]	; (80053f8 <_svfiprintf_r+0x1ec>)
 80052b2:	f000 fa41 	bl	8005738 <memchr>
 80052b6:	9a04      	ldr	r2, [sp, #16]
 80052b8:	b9d8      	cbnz	r0, 80052f2 <_svfiprintf_r+0xe6>
 80052ba:	06d0      	lsls	r0, r2, #27
 80052bc:	bf44      	itt	mi
 80052be:	2320      	movmi	r3, #32
 80052c0:	f88d 3053 	strbmi.w	r3, [sp, #83]	; 0x53
 80052c4:	0711      	lsls	r1, r2, #28
 80052c6:	bf44      	itt	mi
 80052c8:	232b      	movmi	r3, #43	; 0x2b
 80052ca:	f88d 3053 	strbmi.w	r3, [sp, #83]	; 0x53
 80052ce:	f89a 3000 	ldrb.w	r3, [sl]
 80052d2:	2b2a      	cmp	r3, #42	; 0x2a
 80052d4:	d015      	beq.n	8005302 <_svfiprintf_r+0xf6>
 80052d6:	4654      	mov	r4, sl
 80052d8:	2000      	movs	r0, #0
 80052da:	f04f 0c0a 	mov.w	ip, #10
 80052de:	9a07      	ldr	r2, [sp, #28]
 80052e0:	4621      	mov	r1, r4
 80052e2:	f811 3b01 	ldrb.w	r3, [r1], #1
 80052e6:	3b30      	subs	r3, #48	; 0x30
 80052e8:	2b09      	cmp	r3, #9
 80052ea:	d94e      	bls.n	800538a <_svfiprintf_r+0x17e>
 80052ec:	b1b0      	cbz	r0, 800531c <_svfiprintf_r+0x110>
 80052ee:	9207      	str	r2, [sp, #28]
 80052f0:	e014      	b.n	800531c <_svfiprintf_r+0x110>
 80052f2:	eba0 0308 	sub.w	r3, r0, r8
 80052f6:	fa09 f303 	lsl.w	r3, r9, r3
 80052fa:	4313      	orrs	r3, r2
 80052fc:	46a2      	mov	sl, r4
 80052fe:	9304      	str	r3, [sp, #16]
 8005300:	e7d2      	b.n	80052a8 <_svfiprintf_r+0x9c>
 8005302:	9b03      	ldr	r3, [sp, #12]
 8005304:	1d19      	adds	r1, r3, #4
 8005306:	681b      	ldr	r3, [r3, #0]
 8005308:	9103      	str	r1, [sp, #12]
 800530a:	2b00      	cmp	r3, #0
 800530c:	bfbb      	ittet	lt
 800530e:	425b      	neglt	r3, r3
 8005310:	f042 0202 	orrlt.w	r2, r2, #2
 8005314:	9307      	strge	r3, [sp, #28]
 8005316:	9307      	strlt	r3, [sp, #28]
 8005318:	bfb8      	it	lt
 800531a:	9204      	strlt	r2, [sp, #16]
 800531c:	7823      	ldrb	r3, [r4, #0]
 800531e:	2b2e      	cmp	r3, #46	; 0x2e
 8005320:	d10c      	bne.n	800533c <_svfiprintf_r+0x130>
 8005322:	7863      	ldrb	r3, [r4, #1]
 8005324:	2b2a      	cmp	r3, #42	; 0x2a
 8005326:	d135      	bne.n	8005394 <_svfiprintf_r+0x188>
 8005328:	9b03      	ldr	r3, [sp, #12]
 800532a:	3402      	adds	r4, #2
 800532c:	1d1a      	adds	r2, r3, #4
 800532e:	681b      	ldr	r3, [r3, #0]
 8005330:	9203      	str	r2, [sp, #12]
 8005332:	2b00      	cmp	r3, #0
 8005334:	bfb8      	it	lt
 8005336:	f04f 33ff 	movlt.w	r3, #4294967295
 800533a:	9305      	str	r3, [sp, #20]
 800533c:	f8df a0c8 	ldr.w	sl, [pc, #200]	; 8005408 <_svfiprintf_r+0x1fc>
 8005340:	2203      	movs	r2, #3
 8005342:	4650      	mov	r0, sl
 8005344:	7821      	ldrb	r1, [r4, #0]
 8005346:	f000 f9f7 	bl	8005738 <memchr>
 800534a:	b140      	cbz	r0, 800535e <_svfiprintf_r+0x152>
 800534c:	2340      	movs	r3, #64	; 0x40
 800534e:	eba0 000a 	sub.w	r0, r0, sl
 8005352:	fa03 f000 	lsl.w	r0, r3, r0
 8005356:	9b04      	ldr	r3, [sp, #16]
 8005358:	3401      	adds	r4, #1
 800535a:	4303      	orrs	r3, r0
 800535c:	9304      	str	r3, [sp, #16]
 800535e:	f814 1b01 	ldrb.w	r1, [r4], #1
 8005362:	2206      	movs	r2, #6
 8005364:	4825      	ldr	r0, [pc, #148]	; (80053fc <_svfiprintf_r+0x1f0>)
 8005366:	f88d 1028 	strb.w	r1, [sp, #40]	; 0x28
 800536a:	f000 f9e5 	bl	8005738 <memchr>
 800536e:	2800      	cmp	r0, #0
 8005370:	d038      	beq.n	80053e4 <_svfiprintf_r+0x1d8>
 8005372:	4b23      	ldr	r3, [pc, #140]	; (8005400 <_svfiprintf_r+0x1f4>)
 8005374:	bb1b      	cbnz	r3, 80053be <_svfiprintf_r+0x1b2>
 8005376:	9b03      	ldr	r3, [sp, #12]
 8005378:	3307      	adds	r3, #7
 800537a:	f023 0307 	bic.w	r3, r3, #7
 800537e:	3308      	adds	r3, #8
 8005380:	9303      	str	r3, [sp, #12]
 8005382:	9b09      	ldr	r3, [sp, #36]	; 0x24
 8005384:	4433      	add	r3, r6
 8005386:	9309      	str	r3, [sp, #36]	; 0x24
 8005388:	e767      	b.n	800525a <_svfiprintf_r+0x4e>
 800538a:	460c      	mov	r4, r1
 800538c:	2001      	movs	r0, #1
 800538e:	fb0c 3202 	mla	r2, ip, r2, r3
 8005392:	e7a5      	b.n	80052e0 <_svfiprintf_r+0xd4>
 8005394:	2300      	movs	r3, #0
 8005396:	f04f 0c0a 	mov.w	ip, #10
 800539a:	4619      	mov	r1, r3
 800539c:	3401      	adds	r4, #1
 800539e:	9305      	str	r3, [sp, #20]
 80053a0:	4620      	mov	r0, r4
 80053a2:	f810 2b01 	ldrb.w	r2, [r0], #1
 80053a6:	3a30      	subs	r2, #48	; 0x30
 80053a8:	2a09      	cmp	r2, #9
 80053aa:	d903      	bls.n	80053b4 <_svfiprintf_r+0x1a8>
 80053ac:	2b00      	cmp	r3, #0
 80053ae:	d0c5      	beq.n	800533c <_svfiprintf_r+0x130>
 80053b0:	9105      	str	r1, [sp, #20]
 80053b2:	e7c3      	b.n	800533c <_svfiprintf_r+0x130>
 80053b4:	4604      	mov	r4, r0
 80053b6:	2301      	movs	r3, #1
 80053b8:	fb0c 2101 	mla	r1, ip, r1, r2
 80053bc:	e7f0      	b.n	80053a0 <_svfiprintf_r+0x194>
 80053be:	ab03      	add	r3, sp, #12
 80053c0:	9300      	str	r3, [sp, #0]
 80053c2:	462a      	mov	r2, r5
 80053c4:	4638      	mov	r0, r7
 80053c6:	4b0f      	ldr	r3, [pc, #60]	; (8005404 <_svfiprintf_r+0x1f8>)
 80053c8:	a904      	add	r1, sp, #16
 80053ca:	f3af 8000 	nop.w
 80053ce:	1c42      	adds	r2, r0, #1
 80053d0:	4606      	mov	r6, r0
 80053d2:	d1d6      	bne.n	8005382 <_svfiprintf_r+0x176>
 80053d4:	89ab      	ldrh	r3, [r5, #12]
 80053d6:	065b      	lsls	r3, r3, #25
 80053d8:	f53f af2c 	bmi.w	8005234 <_svfiprintf_r+0x28>
 80053dc:	9809      	ldr	r0, [sp, #36]	; 0x24
 80053de:	b01d      	add	sp, #116	; 0x74
 80053e0:	e8bd 8ff0 	ldmia.w	sp!, {r4, r5, r6, r7, r8, r9, sl, fp, pc}
 80053e4:	ab03      	add	r3, sp, #12
 80053e6:	9300      	str	r3, [sp, #0]
 80053e8:	462a      	mov	r2, r5
 80053ea:	4638      	mov	r0, r7
 80053ec:	4b05      	ldr	r3, [pc, #20]	; (8005404 <_svfiprintf_r+0x1f8>)
 80053ee:	a904      	add	r1, sp, #16
 80053f0:	f000 f87c 	bl	80054ec <_printf_i>
 80053f4:	e7eb      	b.n	80053ce <_svfiprintf_r+0x1c2>
 80053f6:	bf00      	nop
 80053f8:	08006624 	.word	0x08006624
 80053fc:	0800662e 	.word	0x0800662e
 8005400:	00000000 	.word	0x00000000
 8005404:	08005155 	.word	0x08005155
 8005408:	0800662a 	.word	0x0800662a

0800540c <_printf_common>:
 800540c:	e92d 47f0 	stmdb	sp!, {r4, r5, r6, r7, r8, r9, sl, lr}
 8005410:	4616      	mov	r6, r2
 8005412:	4699      	mov	r9, r3
 8005414:	688a      	ldr	r2, [r1, #8]
 8005416:	690b      	ldr	r3, [r1, #16]
 8005418:	4607      	mov	r7, r0
 800541a:	4293      	cmp	r3, r2
 800541c:	bfb8      	it	lt
 800541e:	4613      	movlt	r3, r2
 8005420:	6033      	str	r3, [r6, #0]
 8005422:	f891 2043 	ldrb.w	r2, [r1, #67]	; 0x43
 8005426:	460c      	mov	r4, r1
 8005428:	f8dd 8020 	ldr.w	r8, [sp, #32]
 800542c:	b10a      	cbz	r2, 8005432 <_printf_common+0x26>
 800542e:	3301      	adds	r3, #1
 8005430:	6033      	str	r3, [r6, #0]
 8005432:	6823      	ldr	r3, [r4, #0]
 8005434:	0699      	lsls	r1, r3, #26
 8005436:	bf42      	ittt	mi
 8005438:	6833      	ldrmi	r3, [r6, #0]
 800543a:	3302      	addmi	r3, #2
 800543c:	6033      	strmi	r3, [r6, #0]
 800543e:	6825      	ldr	r5, [r4, #0]
 8005440:	f015 0506 	ands.w	r5, r5, #6
 8005444:	d106      	bne.n	8005454 <_printf_common+0x48>
 8005446:	f104 0a19 	add.w	sl, r4, #25
 800544a:	68e3      	ldr	r3, [r4, #12]
 800544c:	6832      	ldr	r2, [r6, #0]
 800544e:	1a9b      	subs	r3, r3, r2
 8005450:	42ab      	cmp	r3, r5
 8005452:	dc28      	bgt.n	80054a6 <_printf_common+0x9a>
 8005454:	f894 2043 	ldrb.w	r2, [r4, #67]	; 0x43
 8005458:	1e13      	subs	r3, r2, #0
 800545a:	6822      	ldr	r2, [r4, #0]
 800545c:	bf18      	it	ne
 800545e:	2301      	movne	r3, #1
 8005460:	0692      	lsls	r2, r2, #26
 8005462:	d42d      	bmi.n	80054c0 <_printf_common+0xb4>
 8005464:	4649      	mov	r1, r9
 8005466:	4638      	mov	r0, r7
 8005468:	f104 0243 	add.w	r2, r4, #67	; 0x43
 800546c:	47c0      	blx	r8
 800546e:	3001      	adds	r0, #1
 8005470:	d020      	beq.n	80054b4 <_printf_common+0xa8>
 8005472:	6823      	ldr	r3, [r4, #0]
 8005474:	68e5      	ldr	r5, [r4, #12]
 8005476:	f003 0306 	and.w	r3, r3, #6
 800547a:	2b04      	cmp	r3, #4
 800547c:	bf18      	it	ne
 800547e:	2500      	movne	r5, #0
 8005480:	6832      	ldr	r2, [r6, #0]
 8005482:	f04f 0600 	mov.w	r6, #0
 8005486:	68a3      	ldr	r3, [r4, #8]
 8005488:	bf08      	it	eq
 800548a:	1aad      	subeq	r5, r5, r2
 800548c:	6922      	ldr	r2, [r4, #16]
 800548e:	bf08      	it	eq
 8005490:	ea25 75e5 	biceq.w	r5, r5, r5, asr #31
 8005494:	4293      	cmp	r3, r2
 8005496:	bfc4      	itt	gt
 8005498:	1a9b      	subgt	r3, r3, r2
 800549a:	18ed      	addgt	r5, r5, r3
 800549c:	341a      	adds	r4, #26
 800549e:	42b5      	cmp	r5, r6
 80054a0:	d11a      	bne.n	80054d8 <_printf_common+0xcc>
 80054a2:	2000      	movs	r0, #0
 80054a4:	e008      	b.n	80054b8 <_printf_common+0xac>
 80054a6:	2301      	movs	r3, #1
 80054a8:	4652      	mov	r2, sl
 80054aa:	4649      	mov	r1, r9
 80054ac:	4638      	mov	r0, r7
 80054ae:	47c0      	blx	r8
 80054b0:	3001      	adds	r0, #1
 80054b2:	d103      	bne.n	80054bc <_printf_common+0xb0>
 80054b4:	f04f 30ff 	mov.w	r0, #4294967295
 80054b8:	e8bd 87f0 	ldmia.w	sp!, {r4, r5, r6, r7, r8, r9, sl, pc}
 80054bc:	3501      	adds	r5, #1
 80054be:	e7c4      	b.n	800544a <_printf_common+0x3e>
 80054c0:	2030      	movs	r0, #48	; 0x30
 80054c2:	18e1      	adds	r1, r4, r3
 80054c4:	f881 0043 	strb.w	r0, [r1, #67]	; 0x43
 80054c8:	1c5a      	adds	r2, r3, #1
 80054ca:	f894 1045 	ldrb.w	r1, [r4, #69]	; 0x45
 80054ce:	4422      	add	r2, r4
 80054d0:	3302      	adds	r3, #2
 80054d2:	f882 1043 	strb.w	r1, [r2, #67]	; 0x43
 80054d6:	e7c5      	b.n	8005464 <_printf_common+0x58>
 80054d8:	2301      	movs	r3, #1
 80054da:	4622      	mov	r2, r4
 80054dc:	4649      	mov	r1, r9
 80054de:	4638      	mov	r0, r7
 80054e0:	47c0      	blx	r8
 80054e2:	3001      	adds	r0, #1
 80054e4:	d0e6      	beq.n	80054b4 <_printf_common+0xa8>
 80054e6:	3601      	adds	r6, #1
 80054e8:	e7d9      	b.n	800549e <_printf_common+0x92>
	...

080054ec <_printf_i>:
 80054ec:	e92d 47ff 	stmdb	sp!, {r0, r1, r2, r3, r4, r5, r6, r7, r8, r9, sl, lr}
 80054f0:	460c      	mov	r4, r1
 80054f2:	7e27      	ldrb	r7, [r4, #24]
 80054f4:	4691      	mov	r9, r2
 80054f6:	2f78      	cmp	r7, #120	; 0x78
 80054f8:	4680      	mov	r8, r0
 80054fa:	469a      	mov	sl, r3
 80054fc:	990c      	ldr	r1, [sp, #48]	; 0x30
 80054fe:	f104 0243 	add.w	r2, r4, #67	; 0x43
 8005502:	d807      	bhi.n	8005514 <_printf_i+0x28>
 8005504:	2f62      	cmp	r7, #98	; 0x62
 8005506:	d80a      	bhi.n	800551e <_printf_i+0x32>
 8005508:	2f00      	cmp	r7, #0
 800550a:	f000 80d9 	beq.w	80056c0 <_printf_i+0x1d4>
 800550e:	2f58      	cmp	r7, #88	; 0x58
 8005510:	f000 80a4 	beq.w	800565c <_printf_i+0x170>
 8005514:	f104 0642 	add.w	r6, r4, #66	; 0x42
 8005518:	f884 7042 	strb.w	r7, [r4, #66]	; 0x42
 800551c:	e03a      	b.n	8005594 <_printf_i+0xa8>
 800551e:	f1a7 0363 	sub.w	r3, r7, #99	; 0x63
 8005522:	2b15      	cmp	r3, #21
 8005524:	d8f6      	bhi.n	8005514 <_printf_i+0x28>
 8005526:	a001      	add	r0, pc, #4	; (adr r0, 800552c <_printf_i+0x40>)
 8005528:	f850 f023 	ldr.w	pc, [r0, r3, lsl #2]
 800552c:	08005585 	.word	0x08005585
 8005530:	08005599 	.word	0x08005599
 8005534:	08005515 	.word	0x08005515
 8005538:	08005515 	.word	0x08005515
 800553c:	08005515 	.word	0x08005515
 8005540:	08005515 	.word	0x08005515
 8005544:	08005599 	.word	0x08005599
 8005548:	08005515 	.word	0x08005515
 800554c:	08005515 	.word	0x08005515
 8005550:	08005515 	.word	0x08005515
 8005554:	08005515 	.word	0x08005515
 8005558:	080056a7 	.word	0x080056a7
 800555c:	080055c9 	.word	0x080055c9
 8005560:	08005689 	.word	0x08005689
 8005564:	08005515 	.word	0x08005515
 8005568:	08005515 	.word	0x08005515
 800556c:	080056c9 	.word	0x080056c9
 8005570:	08005515 	.word	0x08005515
 8005574:	080055c9 	.word	0x080055c9
 8005578:	08005515 	.word	0x08005515
 800557c:	08005515 	.word	0x08005515
 8005580:	08005691 	.word	0x08005691
 8005584:	680b      	ldr	r3, [r1, #0]
 8005586:	f104 0642 	add.w	r6, r4, #66	; 0x42
 800558a:	1d1a      	adds	r2, r3, #4
 800558c:	681b      	ldr	r3, [r3, #0]
 800558e:	600a      	str	r2, [r1, #0]
 8005590:	f884 3042 	strb.w	r3, [r4, #66]	; 0x42
 8005594:	2301      	movs	r3, #1
 8005596:	e0a4      	b.n	80056e2 <_printf_i+0x1f6>
 8005598:	6825      	ldr	r5, [r4, #0]
 800559a:	6808      	ldr	r0, [r1, #0]
 800559c:	062e      	lsls	r6, r5, #24
 800559e:	f100 0304 	add.w	r3, r0, #4
 80055a2:	d50a      	bpl.n	80055ba <_printf_i+0xce>
 80055a4:	6805      	ldr	r5, [r0, #0]
 80055a6:	600b      	str	r3, [r1, #0]
 80055a8:	2d00      	cmp	r5, #0
 80055aa:	da03      	bge.n	80055b4 <_printf_i+0xc8>
 80055ac:	232d      	movs	r3, #45	; 0x2d
 80055ae:	426d      	negs	r5, r5
 80055b0:	f884 3043 	strb.w	r3, [r4, #67]	; 0x43
 80055b4:	230a      	movs	r3, #10
 80055b6:	485e      	ldr	r0, [pc, #376]	; (8005730 <_printf_i+0x244>)
 80055b8:	e019      	b.n	80055ee <_printf_i+0x102>
 80055ba:	f015 0f40 	tst.w	r5, #64	; 0x40
 80055be:	6805      	ldr	r5, [r0, #0]
 80055c0:	600b      	str	r3, [r1, #0]
 80055c2:	bf18      	it	ne
 80055c4:	b22d      	sxthne	r5, r5
 80055c6:	e7ef      	b.n	80055a8 <_printf_i+0xbc>
 80055c8:	680b      	ldr	r3, [r1, #0]
 80055ca:	6825      	ldr	r5, [r4, #0]
 80055cc:	1d18      	adds	r0, r3, #4
 80055ce:	6008      	str	r0, [r1, #0]
 80055d0:	0628      	lsls	r0, r5, #24
 80055d2:	d501      	bpl.n	80055d8 <_printf_i+0xec>
 80055d4:	681d      	ldr	r5, [r3, #0]
 80055d6:	e002      	b.n	80055de <_printf_i+0xf2>
 80055d8:	0669      	lsls	r1, r5, #25
 80055da:	d5fb      	bpl.n	80055d4 <_printf_i+0xe8>
 80055dc:	881d      	ldrh	r5, [r3, #0]
 80055de:	2f6f      	cmp	r7, #111	; 0x6f
 80055e0:	bf0c      	ite	eq
 80055e2:	2308      	moveq	r3, #8
 80055e4:	230a      	movne	r3, #10
 80055e6:	4852      	ldr	r0, [pc, #328]	; (8005730 <_printf_i+0x244>)
 80055e8:	2100      	movs	r1, #0
 80055ea:	f884 1043 	strb.w	r1, [r4, #67]	; 0x43
 80055ee:	6866      	ldr	r6, [r4, #4]
 80055f0:	2e00      	cmp	r6, #0
 80055f2:	bfa8      	it	ge
 80055f4:	6821      	ldrge	r1, [r4, #0]
 80055f6:	60a6      	str	r6, [r4, #8]
 80055f8:	bfa4      	itt	ge
 80055fa:	f021 0104 	bicge.w	r1, r1, #4
 80055fe:	6021      	strge	r1, [r4, #0]
 8005600:	b90d      	cbnz	r5, 8005606 <_printf_i+0x11a>
 8005602:	2e00      	cmp	r6, #0
 8005604:	d04d      	beq.n	80056a2 <_printf_i+0x1b6>
 8005606:	4616      	mov	r6, r2
 8005608:	fbb5 f1f3 	udiv	r1, r5, r3
 800560c:	fb03 5711 	mls	r7, r3, r1, r5
 8005610:	5dc7      	ldrb	r7, [r0, r7]
 8005612:	f806 7d01 	strb.w	r7, [r6, #-1]!
 8005616:	462f      	mov	r7, r5
 8005618:	42bb      	cmp	r3, r7
 800561a:	460d      	mov	r5, r1
 800561c:	d9f4      	bls.n	8005608 <_printf_i+0x11c>
 800561e:	2b08      	cmp	r3, #8
 8005620:	d10b      	bne.n	800563a <_printf_i+0x14e>
 8005622:	6823      	ldr	r3, [r4, #0]
 8005624:	07df      	lsls	r7, r3, #31
 8005626:	d508      	bpl.n	800563a <_printf_i+0x14e>
 8005628:	6923      	ldr	r3, [r4, #16]
 800562a:	6861      	ldr	r1, [r4, #4]
 800562c:	4299      	cmp	r1, r3
 800562e:	bfde      	ittt	le
 8005630:	2330      	movle	r3, #48	; 0x30
 8005632:	f806 3c01 	strble.w	r3, [r6, #-1]
 8005636:	f106 36ff 	addle.w	r6, r6, #4294967295
 800563a:	1b92      	subs	r2, r2, r6
 800563c:	6122      	str	r2, [r4, #16]
 800563e:	464b      	mov	r3, r9
 8005640:	4621      	mov	r1, r4
 8005642:	4640      	mov	r0, r8
 8005644:	f8cd a000 	str.w	sl, [sp]
 8005648:	aa03      	add	r2, sp, #12
 800564a:	f7ff fedf 	bl	800540c <_printf_common>
 800564e:	3001      	adds	r0, #1
 8005650:	d14c      	bne.n	80056ec <_printf_i+0x200>
 8005652:	f04f 30ff 	mov.w	r0, #4294967295
 8005656:	b004      	add	sp, #16
 8005658:	e8bd 87f0 	ldmia.w	sp!, {r4, r5, r6, r7, r8, r9, sl, pc}
 800565c:	4834      	ldr	r0, [pc, #208]	; (8005730 <_printf_i+0x244>)
 800565e:	f884 7045 	strb.w	r7, [r4, #69]	; 0x45
 8005662:	680e      	ldr	r6, [r1, #0]
 8005664:	6823      	ldr	r3, [r4, #0]
 8005666:	f856 5b04 	ldr.w	r5, [r6], #4
 800566a:	061f      	lsls	r7, r3, #24
 800566c:	600e      	str	r6, [r1, #0]
 800566e:	d514      	bpl.n	800569a <_printf_i+0x1ae>
 8005670:	07d9      	lsls	r1, r3, #31
 8005672:	bf44      	itt	mi
 8005674:	f043 0320 	orrmi.w	r3, r3, #32
 8005678:	6023      	strmi	r3, [r4, #0]
 800567a:	b91d      	cbnz	r5, 8005684 <_printf_i+0x198>
 800567c:	6823      	ldr	r3, [r4, #0]
 800567e:	f023 0320 	bic.w	r3, r3, #32
 8005682:	6023      	str	r3, [r4, #0]
 8005684:	2310      	movs	r3, #16
 8005686:	e7af      	b.n	80055e8 <_printf_i+0xfc>
 8005688:	6823      	ldr	r3, [r4, #0]
 800568a:	f043 0320 	orr.w	r3, r3, #32
 800568e:	6023      	str	r3, [r4, #0]
 8005690:	2378      	movs	r3, #120	; 0x78
 8005692:	4828      	ldr	r0, [pc, #160]	; (8005734 <_printf_i+0x248>)
 8005694:	f884 3045 	strb.w	r3, [r4, #69]	; 0x45
 8005698:	e7e3      	b.n	8005662 <_printf_i+0x176>
 800569a:	065e      	lsls	r6, r3, #25
 800569c:	bf48      	it	mi
 800569e:	b2ad      	uxthmi	r5, r5
 80056a0:	e7e6      	b.n	8005670 <_printf_i+0x184>
 80056a2:	4616      	mov	r6, r2
 80056a4:	e7bb      	b.n	800561e <_printf_i+0x132>
 80056a6:	680b      	ldr	r3, [r1, #0]
 80056a8:	6826      	ldr	r6, [r4, #0]
 80056aa:	1d1d      	adds	r5, r3, #4
 80056ac:	6960      	ldr	r0, [r4, #20]
 80056ae:	600d      	str	r5, [r1, #0]
 80056b0:	0635      	lsls	r5, r6, #24
 80056b2:	681b      	ldr	r3, [r3, #0]
 80056b4:	d501      	bpl.n	80056ba <_printf_i+0x1ce>
 80056b6:	6018      	str	r0, [r3, #0]
 80056b8:	e002      	b.n	80056c0 <_printf_i+0x1d4>
 80056ba:	0671      	lsls	r1, r6, #25
 80056bc:	d5fb      	bpl.n	80056b6 <_printf_i+0x1ca>
 80056be:	8018      	strh	r0, [r3, #0]
 80056c0:	2300      	movs	r3, #0
 80056c2:	4616      	mov	r6, r2
 80056c4:	6123      	str	r3, [r4, #16]
 80056c6:	e7ba      	b.n	800563e <_printf_i+0x152>
 80056c8:	680b      	ldr	r3, [r1, #0]
 80056ca:	1d1a      	adds	r2, r3, #4
 80056cc:	600a      	str	r2, [r1, #0]
 80056ce:	681e      	ldr	r6, [r3, #0]
 80056d0:	2100      	movs	r1, #0
 80056d2:	4630      	mov	r0, r6
 80056d4:	6862      	ldr	r2, [r4, #4]
 80056d6:	f000 f82f 	bl	8005738 <memchr>
 80056da:	b108      	cbz	r0, 80056e0 <_printf_i+0x1f4>
 80056dc:	1b80      	subs	r0, r0, r6
 80056de:	6060      	str	r0, [r4, #4]
 80056e0:	6863      	ldr	r3, [r4, #4]
 80056e2:	6123      	str	r3, [r4, #16]
 80056e4:	2300      	movs	r3, #0
 80056e6:	f884 3043 	strb.w	r3, [r4, #67]	; 0x43
 80056ea:	e7a8      	b.n	800563e <_printf_i+0x152>
 80056ec:	4632      	mov	r2, r6
 80056ee:	4649      	mov	r1, r9
 80056f0:	4640      	mov	r0, r8
 80056f2:	6923      	ldr	r3, [r4, #16]
 80056f4:	47d0      	blx	sl
 80056f6:	3001      	adds	r0, #1
 80056f8:	d0ab      	beq.n	8005652 <_printf_i+0x166>
 80056fa:	6823      	ldr	r3, [r4, #0]
 80056fc:	079b      	lsls	r3, r3, #30
 80056fe:	d413      	bmi.n	8005728 <_printf_i+0x23c>
 8005700:	68e0      	ldr	r0, [r4, #12]
 8005702:	9b03      	ldr	r3, [sp, #12]
 8005704:	4298      	cmp	r0, r3
 8005706:	bfb8      	it	lt
 8005708:	4618      	movlt	r0, r3
 800570a:	e7a4      	b.n	8005656 <_printf_i+0x16a>
 800570c:	2301      	movs	r3, #1
 800570e:	4632      	mov	r2, r6
 8005710:	4649      	mov	r1, r9
 8005712:	4640      	mov	r0, r8
 8005714:	47d0      	blx	sl
 8005716:	3001      	adds	r0, #1
 8005718:	d09b      	beq.n	8005652 <_printf_i+0x166>
 800571a:	3501      	adds	r5, #1
 800571c:	68e3      	ldr	r3, [r4, #12]
 800571e:	9903      	ldr	r1, [sp, #12]
 8005720:	1a5b      	subs	r3, r3, r1
 8005722:	42ab      	cmp	r3, r5
 8005724:	dcf2      	bgt.n	800570c <_printf_i+0x220>
 8005726:	e7eb      	b.n	8005700 <_printf_i+0x214>
 8005728:	2500      	movs	r5, #0
 800572a:	f104 0619 	add.w	r6, r4, #25
 800572e:	e7f5      	b.n	800571c <_printf_i+0x230>
 8005730:	08006635 	.word	0x08006635
 8005734:	08006646 	.word	0x08006646

08005738 <memchr>:
 8005738:	4603      	mov	r3, r0
 800573a:	b510      	push	{r4, lr}
 800573c:	b2c9      	uxtb	r1, r1
 800573e:	4402      	add	r2, r0
 8005740:	4293      	cmp	r3, r2
 8005742:	4618      	mov	r0, r3
 8005744:	d101      	bne.n	800574a <memchr+0x12>
 8005746:	2000      	movs	r0, #0
 8005748:	e003      	b.n	8005752 <memchr+0x1a>
 800574a:	7804      	ldrb	r4, [r0, #0]
 800574c:	3301      	adds	r3, #1
 800574e:	428c      	cmp	r4, r1
 8005750:	d1f6      	bne.n	8005740 <memchr+0x8>
 8005752:	bd10      	pop	{r4, pc}

08005754 <memmove>:
 8005754:	4288      	cmp	r0, r1
 8005756:	b510      	push	{r4, lr}
 8005758:	eb01 0402 	add.w	r4, r1, r2
 800575c:	d902      	bls.n	8005764 <memmove+0x10>
 800575e:	4284      	cmp	r4, r0
 8005760:	4623      	mov	r3, r4
 8005762:	d807      	bhi.n	8005774 <memmove+0x20>
 8005764:	1e43      	subs	r3, r0, #1
 8005766:	42a1      	cmp	r1, r4
 8005768:	d008      	beq.n	800577c <memmove+0x28>
 800576a:	f811 2b01 	ldrb.w	r2, [r1], #1
 800576e:	f803 2f01 	strb.w	r2, [r3, #1]!
 8005772:	e7f8      	b.n	8005766 <memmove+0x12>
 8005774:	4601      	mov	r1, r0
 8005776:	4402      	add	r2, r0
 8005778:	428a      	cmp	r2, r1
 800577a:	d100      	bne.n	800577e <memmove+0x2a>
 800577c:	bd10      	pop	{r4, pc}
 800577e:	f813 4d01 	ldrb.w	r4, [r3, #-1]!
 8005782:	f802 4d01 	strb.w	r4, [r2, #-1]!
 8005786:	e7f7      	b.n	8005778 <memmove+0x24>

08005788 <_free_r>:
 8005788:	b538      	push	{r3, r4, r5, lr}
 800578a:	4605      	mov	r5, r0
 800578c:	2900      	cmp	r1, #0
 800578e:	d043      	beq.n	8005818 <_free_r+0x90>
 8005790:	f851 3c04 	ldr.w	r3, [r1, #-4]
 8005794:	1f0c      	subs	r4, r1, #4
 8005796:	2b00      	cmp	r3, #0
 8005798:	bfb8      	it	lt
 800579a:	18e4      	addlt	r4, r4, r3
 800579c:	f000 f8d0 	bl	8005940 <__malloc_lock>
 80057a0:	4a1e      	ldr	r2, [pc, #120]	; (800581c <_free_r+0x94>)
 80057a2:	6813      	ldr	r3, [r2, #0]
 80057a4:	4610      	mov	r0, r2
 80057a6:	b933      	cbnz	r3, 80057b6 <_free_r+0x2e>
 80057a8:	6063      	str	r3, [r4, #4]
 80057aa:	6014      	str	r4, [r2, #0]
 80057ac:	4628      	mov	r0, r5
 80057ae:	e8bd 4038 	ldmia.w	sp!, {r3, r4, r5, lr}
 80057b2:	f000 b8cb 	b.w	800594c <__malloc_unlock>
 80057b6:	42a3      	cmp	r3, r4
 80057b8:	d90a      	bls.n	80057d0 <_free_r+0x48>
 80057ba:	6821      	ldr	r1, [r4, #0]
 80057bc:	1862      	adds	r2, r4, r1
 80057be:	4293      	cmp	r3, r2
 80057c0:	bf01      	itttt	eq
 80057c2:	681a      	ldreq	r2, [r3, #0]
 80057c4:	685b      	ldreq	r3, [r3, #4]
 80057c6:	1852      	addeq	r2, r2, r1
 80057c8:	6022      	streq	r2, [r4, #0]
 80057ca:	6063      	str	r3, [r4, #4]
 80057cc:	6004      	str	r4, [r0, #0]
 80057ce:	e7ed      	b.n	80057ac <_free_r+0x24>
 80057d0:	461a      	mov	r2, r3
 80057d2:	685b      	ldr	r3, [r3, #4]
 80057d4:	b10b      	cbz	r3, 80057da <_free_r+0x52>
 80057d6:	42a3      	cmp	r3, r4
 80057d8:	d9fa      	bls.n	80057d0 <_free_r+0x48>
 80057da:	6811      	ldr	r1, [r2, #0]
 80057dc:	1850      	adds	r0, r2, r1
 80057de:	42a0      	cmp	r0, r4
 80057e0:	d10b      	bne.n	80057fa <_free_r+0x72>
 80057e2:	6820      	ldr	r0, [r4, #0]
 80057e4:	4401      	add	r1, r0
 80057e6:	1850      	adds	r0, r2, r1
 80057e8:	4283      	cmp	r3, r0
 80057ea:	6011      	str	r1, [r2, #0]
 80057ec:	d1de      	bne.n	80057ac <_free_r+0x24>
 80057ee:	6818      	ldr	r0, [r3, #0]
 80057f0:	685b      	ldr	r3, [r3, #4]
 80057f2:	4401      	add	r1, r0
 80057f4:	6011      	str	r1, [r2, #0]
 80057f6:	6053      	str	r3, [r2, #4]
 80057f8:	e7d8      	b.n	80057ac <_free_r+0x24>
 80057fa:	d902      	bls.n	8005802 <_free_r+0x7a>
 80057fc:	230c      	movs	r3, #12
 80057fe:	602b      	str	r3, [r5, #0]
 8005800:	e7d4      	b.n	80057ac <_free_r+0x24>
 8005802:	6820      	ldr	r0, [r4, #0]
 8005804:	1821      	adds	r1, r4, r0
 8005806:	428b      	cmp	r3, r1
 8005808:	bf01      	itttt	eq
 800580a:	6819      	ldreq	r1, [r3, #0]
 800580c:	685b      	ldreq	r3, [r3, #4]
 800580e:	1809      	addeq	r1, r1, r0
 8005810:	6021      	streq	r1, [r4, #0]
 8005812:	6063      	str	r3, [r4, #4]
 8005814:	6054      	str	r4, [r2, #4]
 8005816:	e7c9      	b.n	80057ac <_free_r+0x24>
 8005818:	bd38      	pop	{r3, r4, r5, pc}
 800581a:	bf00      	nop
 800581c:	2000199c 	.word	0x2000199c

08005820 <_malloc_r>:
 8005820:	b5f8      	push	{r3, r4, r5, r6, r7, lr}
 8005822:	1ccd      	adds	r5, r1, #3
 8005824:	f025 0503 	bic.w	r5, r5, #3
 8005828:	3508      	adds	r5, #8
 800582a:	2d0c      	cmp	r5, #12
 800582c:	bf38      	it	cc
 800582e:	250c      	movcc	r5, #12
 8005830:	2d00      	cmp	r5, #0
 8005832:	4606      	mov	r6, r0
 8005834:	db01      	blt.n	800583a <_malloc_r+0x1a>
 8005836:	42a9      	cmp	r1, r5
 8005838:	d903      	bls.n	8005842 <_malloc_r+0x22>
 800583a:	230c      	movs	r3, #12
 800583c:	6033      	str	r3, [r6, #0]
 800583e:	2000      	movs	r0, #0
 8005840:	bdf8      	pop	{r3, r4, r5, r6, r7, pc}
 8005842:	f000 f87d 	bl	8005940 <__malloc_lock>
 8005846:	4921      	ldr	r1, [pc, #132]	; (80058cc <_malloc_r+0xac>)
 8005848:	680a      	ldr	r2, [r1, #0]
 800584a:	4614      	mov	r4, r2
 800584c:	b99c      	cbnz	r4, 8005876 <_malloc_r+0x56>
 800584e:	4f20      	ldr	r7, [pc, #128]	; (80058d0 <_malloc_r+0xb0>)
 8005850:	683b      	ldr	r3, [r7, #0]
 8005852:	b923      	cbnz	r3, 800585e <_malloc_r+0x3e>
 8005854:	4621      	mov	r1, r4
 8005856:	4630      	mov	r0, r6
 8005858:	f000 f862 	bl	8005920 <_sbrk_r>
 800585c:	6038      	str	r0, [r7, #0]
 800585e:	4629      	mov	r1, r5
 8005860:	4630      	mov	r0, r6
 8005862:	f000 f85d 	bl	8005920 <_sbrk_r>
 8005866:	1c43      	adds	r3, r0, #1
 8005868:	d123      	bne.n	80058b2 <_malloc_r+0x92>
 800586a:	230c      	movs	r3, #12
 800586c:	4630      	mov	r0, r6
 800586e:	6033      	str	r3, [r6, #0]
 8005870:	f000 f86c 	bl	800594c <__malloc_unlock>
 8005874:	e7e3      	b.n	800583e <_malloc_r+0x1e>
 8005876:	6823      	ldr	r3, [r4, #0]
 8005878:	1b5b      	subs	r3, r3, r5
 800587a:	d417      	bmi.n	80058ac <_malloc_r+0x8c>
 800587c:	2b0b      	cmp	r3, #11
 800587e:	d903      	bls.n	8005888 <_malloc_r+0x68>
 8005880:	6023      	str	r3, [r4, #0]
 8005882:	441c      	add	r4, r3
 8005884:	6025      	str	r5, [r4, #0]
 8005886:	e004      	b.n	8005892 <_malloc_r+0x72>
 8005888:	6863      	ldr	r3, [r4, #4]
 800588a:	42a2      	cmp	r2, r4
 800588c:	bf0c      	ite	eq
 800588e:	600b      	streq	r3, [r1, #0]
 8005890:	6053      	strne	r3, [r2, #4]
 8005892:	4630      	mov	r0, r6
 8005894:	f000 f85a 	bl	800594c <__malloc_unlock>
 8005898:	f104 000b 	add.w	r0, r4, #11
 800589c:	1d23      	adds	r3, r4, #4
 800589e:	f020 0007 	bic.w	r0, r0, #7
 80058a2:	1ac2      	subs	r2, r0, r3
 80058a4:	d0cc      	beq.n	8005840 <_malloc_r+0x20>
 80058a6:	1a1b      	subs	r3, r3, r0
 80058a8:	50a3      	str	r3, [r4, r2]
 80058aa:	e7c9      	b.n	8005840 <_malloc_r+0x20>
 80058ac:	4622      	mov	r2, r4
 80058ae:	6864      	ldr	r4, [r4, #4]
 80058b0:	e7cc      	b.n	800584c <_malloc_r+0x2c>
 80058b2:	1cc4      	adds	r4, r0, #3
 80058b4:	f024 0403 	bic.w	r4, r4, #3
 80058b8:	42a0      	cmp	r0, r4
 80058ba:	d0e3      	beq.n	8005884 <_malloc_r+0x64>
 80058bc:	1a21      	subs	r1, r4, r0
 80058be:	4630      	mov	r0, r6
 80058c0:	f000 f82e 	bl	8005920 <_sbrk_r>
 80058c4:	3001      	adds	r0, #1
 80058c6:	d1dd      	bne.n	8005884 <_malloc_r+0x64>
 80058c8:	e7cf      	b.n	800586a <_malloc_r+0x4a>
 80058ca:	bf00      	nop
 80058cc:	2000199c 	.word	0x2000199c
 80058d0:	200019a0 	.word	0x200019a0

080058d4 <_realloc_r>:
 80058d4:	b5f8      	push	{r3, r4, r5, r6, r7, lr}
 80058d6:	4607      	mov	r7, r0
 80058d8:	4614      	mov	r4, r2
 80058da:	460e      	mov	r6, r1
 80058dc:	b921      	cbnz	r1, 80058e8 <_realloc_r+0x14>
 80058de:	4611      	mov	r1, r2
 80058e0:	e8bd 40f8 	ldmia.w	sp!, {r3, r4, r5, r6, r7, lr}
 80058e4:	f7ff bf9c 	b.w	8005820 <_malloc_r>
 80058e8:	b922      	cbnz	r2, 80058f4 <_realloc_r+0x20>
 80058ea:	f7ff ff4d 	bl	8005788 <_free_r>
 80058ee:	4625      	mov	r5, r4
 80058f0:	4628      	mov	r0, r5
 80058f2:	bdf8      	pop	{r3, r4, r5, r6, r7, pc}
 80058f4:	f000 f830 	bl	8005958 <_malloc_usable_size_r>
 80058f8:	42a0      	cmp	r0, r4
 80058fa:	d20f      	bcs.n	800591c <_realloc_r+0x48>
 80058fc:	4621      	mov	r1, r4
 80058fe:	4638      	mov	r0, r7
 8005900:	f7ff ff8e 	bl	8005820 <_malloc_r>
 8005904:	4605      	mov	r5, r0
 8005906:	2800      	cmp	r0, #0
 8005908:	d0f2      	beq.n	80058f0 <_realloc_r+0x1c>
 800590a:	4631      	mov	r1, r6
 800590c:	4622      	mov	r2, r4
 800590e:	f7ff fb53 	bl	8004fb8 <memcpy>
 8005912:	4631      	mov	r1, r6
 8005914:	4638      	mov	r0, r7
 8005916:	f7ff ff37 	bl	8005788 <_free_r>
 800591a:	e7e9      	b.n	80058f0 <_realloc_r+0x1c>
 800591c:	4635      	mov	r5, r6
 800591e:	e7e7      	b.n	80058f0 <_realloc_r+0x1c>

08005920 <_sbrk_r>:
 8005920:	b538      	push	{r3, r4, r5, lr}
 8005922:	2300      	movs	r3, #0
 8005924:	4d05      	ldr	r5, [pc, #20]	; (800593c <_sbrk_r+0x1c>)
 8005926:	4604      	mov	r4, r0
 8005928:	4608      	mov	r0, r1
 800592a:	602b      	str	r3, [r5, #0]
 800592c:	f7fc f8d2 	bl	8001ad4 <_sbrk>
 8005930:	1c43      	adds	r3, r0, #1
 8005932:	d102      	bne.n	800593a <_sbrk_r+0x1a>
 8005934:	682b      	ldr	r3, [r5, #0]
 8005936:	b103      	cbz	r3, 800593a <_sbrk_r+0x1a>
 8005938:	6023      	str	r3, [r4, #0]
 800593a:	bd38      	pop	{r3, r4, r5, pc}
 800593c:	20002030 	.word	0x20002030

08005940 <__malloc_lock>:
 8005940:	4801      	ldr	r0, [pc, #4]	; (8005948 <__malloc_lock+0x8>)
 8005942:	f000 b811 	b.w	8005968 <__retarget_lock_acquire_recursive>
 8005946:	bf00      	nop
 8005948:	20002038 	.word	0x20002038

0800594c <__malloc_unlock>:
 800594c:	4801      	ldr	r0, [pc, #4]	; (8005954 <__malloc_unlock+0x8>)
 800594e:	f000 b80c 	b.w	800596a <__retarget_lock_release_recursive>
 8005952:	bf00      	nop
 8005954:	20002038 	.word	0x20002038

08005958 <_malloc_usable_size_r>:
 8005958:	f851 3c04 	ldr.w	r3, [r1, #-4]
 800595c:	1f18      	subs	r0, r3, #4
 800595e:	2b00      	cmp	r3, #0
 8005960:	bfbc      	itt	lt
 8005962:	580b      	ldrlt	r3, [r1, r0]
 8005964:	18c0      	addlt	r0, r0, r3
 8005966:	4770      	bx	lr

08005968 <__retarget_lock_acquire_recursive>:
 8005968:	4770      	bx	lr

0800596a <__retarget_lock_release_recursive>:
 800596a:	4770      	bx	lr

0800596c <_init>:
 800596c:	b5f8      	push	{r3, r4, r5, r6, r7, lr}
 800596e:	bf00      	nop
 8005970:	bcf8      	pop	{r3, r4, r5, r6, r7}
 8005972:	bc08      	pop	{r3}
 8005974:	469e      	mov	lr, r3
 8005976:	4770      	bx	lr

08005978 <_fini>:
 8005978:	b5f8      	push	{r3, r4, r5, r6, r7, lr}
 800597a:	bf00      	nop
 800597c:	bcf8      	pop	{r3, r4, r5, r6, r7}
 800597e:	bc08      	pop	{r3}
 8005980:	469e      	mov	lr, r3
 8005982:	4770      	bx	lr
